
build/telosb/main.exe:     file format elf32-msp430


Disassembly of section .text:

00004000 <__watchdog_support>:
    4000:	55 42 20 01 	mov.b	&0x0120,r5	
    4004:	35 d0 08 5a 	bis	#23048,	r5	;#0x5a08
    4008:	82 45 9e 15 	mov	r5,	&0x159e	

0000400c <__init_stack>:
    400c:	31 40 00 39 	mov	#14592,	r1	;#0x3900

00004010 <__do_copy_data>:
    4010:	3f 40 12 00 	mov	#18,	r15	;#0x0012
    4014:	0f 93       	tst	r15		
    4016:	08 24       	jz	$+18     	;abs 0x4028
    4018:	92 42 9e 15 20 01 	mov	&0x159e,&0x0120	
    401e:	2f 83       	decd	r15		
    4020:	9f 4f 70 9a 00 11 	mov	-26000(r15),4352(r15);0x9a70(r15), 0x1100(r15)
    4026:	f8 23       	jnz	$-14     	;abs 0x4018

00004028 <__do_clear_bss>:
    4028:	3f 40 8c 04 	mov	#1164,	r15	;#0x048c
    402c:	0f 93       	tst	r15		
    402e:	07 24       	jz	$+16     	;abs 0x403e
    4030:	92 42 9e 15 20 01 	mov	&0x159e,&0x0120	
    4036:	1f 83       	dec	r15		
    4038:	cf 43 12 11 	mov.b	#0,	4370(r15);r3 As==00, 0x1112(r15)
    403c:	f9 23       	jnz	$-12     	;abs 0x4030

0000403e <main>:
    403e:	21 82       	sub	#4,	r1	;r2 As==10
    4040:	b0 12 32 4e 	call	#0x4e32	
    4044:	c1 4f 02 00 	mov.b	r15,	2(r1)	;0x0002(r1)
    4048:	3d 40 22 00 	mov	#34,	r13	;#0x0022
    404c:	3e 40 ff 00 	mov	#255,	r14	;#0x00ff
    4050:	3f 40 8a 11 	mov	#4490,	r15	;#0x118a
    4054:	b0 12 64 99 	call	#0x9964	
    4058:	f2 43 6d 15 	mov.b	#-1,	&0x156d	;r3 As==11
    405c:	f2 43 92 15 	mov.b	#-1,	&0x1592	;r3 As==11
    4060:	b2 40 80 5a 20 01 	mov	#23168,	&0x0120	;#0x5a80
    4066:	a2 42 60 01 	mov	#4,	&0x0160	;r2 As==10
    406a:	82 43 2e 01 	mov	#0,	&0x012e	;r3 As==00
    406e:	a2 42 80 01 	mov	#4,	&0x0180	;r2 As==10
    4072:	82 43 1e 01 	mov	#0,	&0x011e	;r3 As==00
    4076:	b2 40 20 02 60 01 	mov	#544,	&0x0160	;#0x0220
    407c:	b2 40 20 01 80 01 	mov	#288,	&0x0180	;#0x0120
    4082:	f2 40 84 ff 57 00 	mov.b	#-124,	&0x0057	;#0xff84
    4088:	c2 43 58 00 	mov.b	#0,	&0x0058	;r3 As==00
    408c:	b2 40 00 40 82 01 	mov	#16384,	&0x0182	;#0x4000
    4092:	38 40 0c 00 	mov	#12,	r8	;#0x000c
    4096:	3d 40 00 08 	mov	#2048,	r13	;#0x0800
    409a:	0e 43       	clr	r14		
    409c:	0c 4d       	mov	r13,	r12	
    409e:	0c de       	bis	r14,	r12	
    40a0:	54 42 57 00 	mov.b	&0x0057,r4	
    40a4:	0b 4c       	mov	r12,	r11	
    40a6:	8b 10       	swpb	r11		
    40a8:	7b f0 07 00 	and.b	#7,	r11	;#0x0007
    40ac:	74 f0 f8 ff 	and.b	#-8,	r4	;#0xfff8
    40b0:	4b d4       	bis.b	r4,	r11	
    40b2:	c2 4b 57 00 	mov.b	r11,	&0x0057	
    40b6:	c2 4c 56 00 	mov.b	r12,	&0x0056	
    40ba:	7b 40 03 00 	mov.b	#3,	r11	;#0x0003
    40be:	04 43       	clr	r4		
    40c0:	0a 43       	clr	r10		
    40c2:	0f 3c       	jmp	$+32     	;abs 0x40e2
    40c4:	1a 42 90 01 	mov	&0x0190,r10	
    40c8:	3a 52       	add	#8,	r10	;r2 As==11
    40ca:	82 4a 92 01 	mov	r10,	&0x0192	
    40ce:	b2 f0 fe ff 82 01 	and	#-2,	&0x0182	;#0xfffe
    40d4:	92 b3 82 01 	bit	#1,	&0x0182	;r3 As==01
    40d8:	fd 27       	jz	$-4      	;abs 0x40d4
    40da:	1f 42 70 01 	mov	&0x0170,r15	
    40de:	0a 44       	mov	r4,	r10	
    40e0:	04 4f       	mov	r15,	r4	
    40e2:	7b 53       	add.b	#-1,	r11	;r3 As==11
    40e4:	ef 23       	jnz	$-32     	;abs 0x40c4
    40e6:	04 8a       	sub	r10,	r4	
    40e8:	34 90 01 04 	cmp	#1025,	r4	;#0x0401
    40ec:	01 2c       	jc	$+4      	;abs 0x40f0
    40ee:	0e 4c       	mov	r12,	r14	
    40f0:	0d 11       	rra	r13		
    40f2:	38 53       	add	#-1,	r8	;r3 As==11
    40f4:	d3 23       	jnz	$-88     	;abs 0x409c
    40f6:	0f 4e       	mov	r14,	r15	
    40f8:	3f f0 e0 00 	and	#224,	r15	;#0x00e0
    40fc:	3f 90 e0 00 	cmp	#224,	r15	;#0x00e0
    4100:	02 20       	jnz	$+6      	;abs 0x4106
    4102:	3e f0 e0 ff 	and	#-32,	r14	;#0xffe0
    4106:	5c 42 57 00 	mov.b	&0x0057,r12	
    410a:	0d 4e       	mov	r14,	r13	
    410c:	8d 10       	swpb	r13		
    410e:	7d f0 07 00 	and.b	#7,	r13	;#0x0007
    4112:	7c f0 f8 ff 	and.b	#-8,	r12	;#0xfff8
    4116:	4d dc       	bis.b	r12,	r13	
    4118:	c2 4d 57 00 	mov.b	r13,	&0x0057	
    411c:	c2 4e 56 00 	mov.b	r14,	&0x0056	
    4120:	5e 42 57 00 	mov.b	&0x0057,r14	
    4124:	7e f0 07 00 	and.b	#7,	r14	;#0x0007
    4128:	7e d0 80 ff 	bis.b	#-128,	r14	;#0xff80
    412c:	c2 4e 57 00 	mov.b	r14,	&0x0057	
    4130:	e2 42 58 00 	mov.b	#4,	&0x0058	;r2 As==10
    4134:	f2 f0 fd ff 00 00 	and.b	#-3,	&0x0000	;#0xfffd
    413a:	82 43 70 01 	mov	#0,	&0x0170	;r3 As==00
    413e:	b2 40 02 02 60 01 	mov	#514,	&0x0160	;#0x0202
    4144:	82 43 90 01 	mov	#0,	&0x0190	;r3 As==00
    4148:	b2 40 02 01 80 01 	mov	#258,	&0x0180	;#0x0102
    414e:	1e 42 60 01 	mov	&0x0160,r14	
    4152:	3e f0 cf ff 	and	#-49,	r14	;#0xffcf
    4156:	3e d0 20 00 	bis	#32,	r14	;#0x0020
    415a:	82 4e 60 01 	mov	r14,	&0x0160	
    415e:	1e 42 80 01 	mov	&0x0180,r14	
    4162:	3e f0 cf ff 	and	#-49,	r14	;#0xffcf
    4166:	3e d0 20 00 	bis	#32,	r14	;#0x0020
    416a:	82 4e 80 01 	mov	r14,	&0x0180	
    416e:	c2 43 26 00 	mov.b	#0,	&0x0026	;r3 As==00
    4172:	c2 43 2e 00 	mov.b	#0,	&0x002e	;r3 As==00
    4176:	c2 43 1b 00 	mov.b	#0,	&0x001b	;r3 As==00
    417a:	c2 43 1f 00 	mov.b	#0,	&0x001f	;r3 As==00
    417e:	c2 43 33 00 	mov.b	#0,	&0x0033	;r3 As==00
    4182:	c2 43 37 00 	mov.b	#0,	&0x0037	;r3 As==00
    4186:	c2 43 21 00 	mov.b	#0,	&0x0021	;r3 As==00
    418a:	f2 40 e0 ff 22 00 	mov.b	#-32,	&0x0022	;#0xffe0
    4190:	f2 40 30 00 29 00 	mov.b	#48,	&0x0029	;#0x0030
    4196:	f2 40 7b 00 2a 00 	mov.b	#123,	&0x002a	;#0x007b
    419c:	c2 43 19 00 	mov.b	#0,	&0x0019	;r3 As==00
    41a0:	f2 40 f1 ff 1a 00 	mov.b	#-15,	&0x001a	;#0xfff1
    41a6:	f2 40 dd ff 1d 00 	mov.b	#-35,	&0x001d	;#0xffdd
    41ac:	f2 40 fd ff 1e 00 	mov.b	#-3,	&0x001e	;#0xfffd
    41b2:	f2 43 31 00 	mov.b	#-1,	&0x0031	;r3 As==11
    41b6:	f2 43 32 00 	mov.b	#-1,	&0x0032	;r3 As==11
    41ba:	c2 43 35 00 	mov.b	#0,	&0x0035	;r3 As==00
    41be:	f2 43 36 00 	mov.b	#-1,	&0x0036	;r3 As==11
    41c2:	c2 43 25 00 	mov.b	#0,	&0x0025	;r3 As==00
    41c6:	c2 43 2d 00 	mov.b	#0,	&0x002d	;r3 As==00
    41ca:	1f 42 70 01 	mov	&0x0170,r15	
    41ce:	1e 42 70 01 	mov	&0x0170,r14	
    41d2:	0e 8f       	sub	r15,	r14	
    41d4:	3e 90 01 28 	cmp	#10241,	r14	;#0x2801
    41d8:	fa 2b       	jnc	$-10     	;abs 0x41ce
    41da:	e2 d3 1a 00 	bis.b	#2,	&0x001a	;r3 As==10
    41de:	f2 d2 1a 00 	bis.b	#8,	&0x001a	;r2 As==11
    41e2:	f2 d0 80 ff 1e 00 	bis.b	#-128,	&0x001e	;#0xff80
    41e8:	f2 d0 10 00 1e 00 	bis.b	#16,	&0x001e	;#0x0010
    41ee:	f2 d0 80 ff 1d 00 	bis.b	#-128,	&0x001d	;#0xff80
    41f4:	f2 d0 10 00 1d 00 	bis.b	#16,	&0x001d	;#0x0010
    41fa:	03 43       	nop			
    41fc:	03 43       	nop			
    41fe:	f2 f0 ef ff 1d 00 	and.b	#-17,	&0x001d	;#0xffef
    4204:	f2 f0 f7 ff 19 00 	and.b	#-9,	&0x0019	;#0xfff7
    420a:	5f 43       	mov.b	#1,	r15	;r3 As==01
    420c:	b0 12 d0 46 	call	#0x46d0	
    4210:	4f 43       	clr.b	r15		
    4212:	b0 12 d0 46 	call	#0x46d0	
    4216:	5f 43       	mov.b	#1,	r15	;r3 As==01
    4218:	b0 12 d0 46 	call	#0x46d0	
    421c:	5f 43       	mov.b	#1,	r15	;r3 As==01
    421e:	b0 12 d0 46 	call	#0x46d0	
    4222:	5f 43       	mov.b	#1,	r15	;r3 As==01
    4224:	b0 12 d0 46 	call	#0x46d0	
    4228:	4f 43       	clr.b	r15		
    422a:	b0 12 d0 46 	call	#0x46d0	
    422e:	4f 43       	clr.b	r15		
    4230:	b0 12 d0 46 	call	#0x46d0	
    4234:	5f 43       	mov.b	#1,	r15	;r3 As==01
    4236:	b0 12 d0 46 	call	#0x46d0	
    423a:	f2 d0 10 00 1d 00 	bis.b	#16,	&0x001d	;#0x0010
    4240:	f2 d2 19 00 	bis.b	#8,	&0x0019	;r2 As==11
    4244:	e2 d3 19 00 	bis.b	#2,	&0x0019	;r3 As==10
    4248:	f2 d0 10 00 32 00 	bis.b	#16,	&0x0032	;#0x0010
    424e:	f2 d0 20 00 32 00 	bis.b	#32,	&0x0032	;#0x0020
    4254:	f2 d0 40 00 32 00 	bis.b	#64,	&0x0032	;#0x0040
    425a:	f2 d0 10 00 31 00 	bis.b	#16,	&0x0031	;#0x0010
    4260:	f2 d0 20 00 31 00 	bis.b	#32,	&0x0031	;#0x0020
    4266:	b0 12 aa 5d 	call	#0x5daa	
    426a:	b0 12 ba 94 	call	#0x94ba	
    426e:	4f 93       	tst.b	r15		
    4270:	fc 23       	jnz	$-6      	;abs 0x426a
    4272:	f2 43 b6 12 	mov.b	#-1,	&0x12b6	;r3 As==11
    4276:	f2 43 b7 12 	mov.b	#-1,	&0x12b7	;r3 As==11
    427a:	1c 42 10 11 	mov	&0x1110,r12	
    427e:	1c 53       	inc	r12		
    4280:	82 4c a2 12 	mov	r12,	&0x12a2	
    4284:	82 43 a4 12 	mov	#0,	&0x12a4	;r3 As==00
    4288:	b2 f0 ef ff 8a 01 	and	#-17,	&0x018a	;#0xffef
    428e:	b2 40 00 40 8a 01 	mov	#16384,	&0x018a	;#0x4000
    4294:	b2 f0 ef ff 88 01 	and	#-17,	&0x0188	;#0xffef
    429a:	b2 40 00 40 88 01 	mov	#16384,	&0x0188	;#0x4000
    42a0:	3d 40 1c 00 	mov	#28,	r13	;#0x001c
    42a4:	0e 43       	clr	r14		
    42a6:	3f 40 d6 14 	mov	#5334,	r15	;#0x14d6
    42aa:	b0 12 64 99 	call	#0x9964	
    42ae:	b2 f0 ef ff 86 01 	and	#-17,	&0x0186	;#0xffef
    42b4:	b2 40 00 40 86 01 	mov	#16384,	&0x0186	;#0x4000
    42ba:	b2 40 c8 12 40 14 	mov	#4808,	&0x1440	;#0x12c8
    42c0:	82 43 ac 11 	mov	#0,	&0x11ac	;r3 As==00
    42c4:	f2 43 ba 11 	mov.b	#-1,	&0x11ba	;r3 As==11
    42c8:	c2 43 cd 14 	mov.b	#0,	&0x14cd	;r3 As==00
    42cc:	e2 d2 1e 00 	bis.b	#4,	&0x001e	;r2 As==10
    42d0:	f2 d0 40 00 1e 00 	bis.b	#64,	&0x001e	;#0x0040
    42d6:	f2 d0 20 00 1e 00 	bis.b	#32,	&0x001e	;#0x0020
    42dc:	d2 43 b4 11 	mov.b	#1,	&0x11b4	;r3 As==01
    42e0:	d2 43 9f 12 	mov.b	#1,	&0x129f	;r3 As==01
    42e4:	d2 43 f8 14 	mov.b	#1,	&0x14f8	;r3 As==01
    42e8:	c2 43 68 13 	mov.b	#0,	&0x1368	;r3 As==00
    42ec:	c2 43 f2 14 	mov.b	#0,	&0x14f2	;r3 As==00
    42f0:	f2 f0 ef ff 22 00 	and.b	#-17,	&0x0022	;#0xffef
    42f6:	e2 d2 1e 00 	bis.b	#4,	&0x001e	;r2 As==10
    42fa:	f2 f0 fd ff 1e 00 	and.b	#-3,	&0x001e	;#0xfffd
    4300:	b2 40 42 14 96 15 	mov	#5186,	&0x1596	;#0x1442
    4306:	b2 40 62 14 98 15 	mov	#5218,	&0x1598	;#0x1462
    430c:	b2 40 82 14 9a 15 	mov	#5250,	&0x159a	;#0x1482
    4312:	f2 40 03 00 60 13 	mov.b	#3,	&0x1360	;#0x0003
    4318:	c2 43 76 15 	mov.b	#0,	&0x1576	;r3 As==00
    431c:	b2 40 fc 14 c2 14 	mov	#5372,	&0x14c2	;#0x14fc
    4322:	b2 40 06 15 c4 14 	mov	#5382,	&0x14c4	;#0x1506
    4328:	b2 40 10 15 c6 14 	mov	#5392,	&0x14c6	;#0x1510
    432e:	b2 40 1a 15 c8 14 	mov	#5402,	&0x14c8	;#0x151a
    4334:	e2 42 61 13 	mov.b	#4,	&0x1361	;r2 As==10
    4338:	c2 43 a7 12 	mov.b	#0,	&0x12a7	;r3 As==00
    433c:	c2 43 a6 13 	mov.b	#0,	&0x13a6	;r3 As==00
    4340:	c2 43 a7 13 	mov.b	#0,	&0x13a7	;r3 As==00
    4344:	b0 12 a0 5b 	call	#0x5ba0	
    4348:	0b 4e       	mov	r14,	r11	
    434a:	0a 4f       	mov	r15,	r10	
    434c:	b0 12 a0 5b 	call	#0x5ba0	
    4350:	04 43       	clr	r4		
    4352:	05 43       	clr	r5		
    4354:	06 43       	clr	r6		
    4356:	07 43       	clr	r7		
    4358:	05 43       	clr	r5		
    435a:	06 4b       	mov	r11,	r6	
    435c:	07 4a       	mov	r10,	r7	
    435e:	08 4e       	mov	r14,	r8	
    4360:	09 4f       	mov	r15,	r9	
    4362:	0a 43       	clr	r10		
    4364:	0b 43       	clr	r11		
    4366:	0c 44       	mov	r4,	r12	
    4368:	0d 45       	mov	r5,	r13	
    436a:	0e 46       	mov	r6,	r14	
    436c:	0f 47       	mov	r7,	r15	
    436e:	0c d8       	bis	r8,	r12	
    4370:	0d d9       	bis	r9,	r13	
    4372:	0e da       	bis	r10,	r14	
    4374:	0f db       	bis	r11,	r15	
    4376:	82 4c 9e 13 	mov	r12,	&0x139e	
    437a:	82 4d a0 13 	mov	r13,	&0x13a0	
    437e:	82 4e a2 13 	mov	r14,	&0x13a2	
    4382:	82 4f a4 13 	mov	r15,	&0x13a4	
    4386:	b0 12 e4 5c 	call	#0x5ce4	
    438a:	b2 f0 ef ff 82 01 	and	#-17,	&0x0182	;#0xffef
    4390:	b2 40 00 40 82 01 	mov	#16384,	&0x0182	;#0x4000
    4396:	b0 12 ba 94 	call	#0x94ba	
    439a:	4f 93       	tst.b	r15		
    439c:	fc 23       	jnz	$-6      	;abs 0x4396
    439e:	5f 41 02 00 	mov.b	2(r1),	r15	;0x0002(r1)
    43a2:	b0 12 44 4e 	call	#0x4e44	
    43a6:	32 d2       	eint			
    43a8:	4d 43       	clr.b	r13		
    43aa:	5e 43       	mov.b	#1,	r14	;r3 As==01
    43ac:	0f 43       	clr	r15		
    43ae:	b0 12 66 4c 	call	#0x4c66	
    43b2:	4d 43       	clr.b	r13		
    43b4:	5e 43       	mov.b	#1,	r14	;r3 As==01
    43b6:	1f 43       	mov	#1,	r15	;r3 As==01
    43b8:	b0 12 66 4c 	call	#0x4c66	
    43bc:	4d 43       	clr.b	r13		
    43be:	5e 43       	mov.b	#1,	r14	;r3 As==01
    43c0:	2f 43       	mov	#2,	r15	;r3 As==10
    43c2:	b0 12 66 4c 	call	#0x4c66	
    43c6:	4d 43       	clr.b	r13		
    43c8:	5e 43       	mov.b	#1,	r14	;r3 As==01
    43ca:	3f 40 03 00 	mov	#3,	r15	;#0x0003
    43ce:	b0 12 66 4c 	call	#0x4c66	
    43d2:	4d 43       	clr.b	r13		
    43d4:	6e 43       	mov.b	#2,	r14	;r3 As==10
    43d6:	2f 42       	mov	#4,	r15	;r2 As==10
    43d8:	b0 12 66 4c 	call	#0x4c66	
    43dc:	4d 43       	clr.b	r13		
    43de:	5e 43       	mov.b	#1,	r14	;r3 As==01
    43e0:	3f 40 06 00 	mov	#6,	r15	;#0x0006
    43e4:	b0 12 66 4c 	call	#0x4c66	
    43e8:	5d 43       	mov.b	#1,	r13	;r3 As==01
    43ea:	5e 43       	mov.b	#1,	r14	;r3 As==01
    43ec:	3f 40 07 00 	mov	#7,	r15	;#0x0007
    43f0:	b0 12 66 4c 	call	#0x4c66	
    43f4:	b2 90 03 00 a0 12 	cmp	#3,	&0x12a0	;#0x0003
    43fa:	08 24       	jz	$+18     	;abs 0x440c
    43fc:	d2 43 3c 14 	mov.b	#1,	&0x143c	;r3 As==01
    4400:	f2 40 05 00 9c 15 	mov.b	#5,	&0x159c	;#0x0005
    4406:	5f 43       	mov.b	#1,	r15	;r3 As==01
    4408:	b0 12 ae 6d 	call	#0x6dae	
    440c:	b0 12 32 4e 	call	#0x4e32	
    4410:	4a 4f       	mov.b	r15,	r10	
    4412:	86 3c       	jmp	$+270    	;abs 0x4520
    4414:	c2 93 0a 11 	tst.b	&0x110a	
    4418:	77 24       	jz	$+240    	;abs 0x4508
    441a:	b2 b0 10 00 62 01 	bit	#16,	&0x0162	;#0x0010
    4420:	08 20       	jnz	$+18     	;abs 0x4432
    4422:	b2 b0 10 00 64 01 	bit	#16,	&0x0164	;#0x0010
    4428:	04 20       	jnz	$+10     	;abs 0x4432
    442a:	b2 b0 10 00 66 01 	bit	#16,	&0x0166	;#0x0010
    4430:	07 24       	jz	$+16     	;abs 0x4440
    4432:	1e 42 60 01 	mov	&0x0160,r14	
    4436:	3e f0 00 03 	and	#768,	r14	;#0x0300
    443a:	3e 90 00 02 	cmp	#512,	r14	;#0x0200
    443e:	2e 24       	jz	$+94     	;abs 0x449c
    4440:	5f 42 04 00 	mov.b	&0x0004,r15	
    4444:	3f b0 c0 00 	bit	#192,	r15	;#0x00c0
    4448:	05 24       	jz	$+12     	;abs 0x4454
    444a:	5f 42 71 00 	mov.b	&0x0071,r15	
    444e:	3f f0 20 00 	and	#32,	r15	;#0x0020
    4452:	26 20       	jnz	$+78     	;abs 0x44a0
    4454:	5f 42 05 00 	mov.b	&0x0005,r15	
    4458:	3f b0 30 00 	bit	#48,	r15	;#0x0030
    445c:	05 24       	jz	$+12     	;abs 0x4468
    445e:	5f 42 79 00 	mov.b	&0x0079,r15	
    4462:	3f f0 20 00 	and	#32,	r15	;#0x0020
    4466:	1e 20       	jnz	$+62     	;abs 0x44a4
    4468:	5f 42 70 00 	mov.b	&0x0070,r15	
    446c:	1f f3       	and	#1,	r15	;r3 As==01
    446e:	1c 24       	jz	$+58     	;abs 0x44a8
    4470:	5f 42 71 00 	mov.b	&0x0071,r15	
    4474:	3f f0 20 00 	and	#32,	r15	;#0x0020
    4478:	1a 24       	jz	$+54     	;abs 0x44ae
    447a:	5f 42 72 00 	mov.b	&0x0072,r15	
    447e:	3f f0 20 00 	and	#32,	r15	;#0x0020
    4482:	18 24       	jz	$+50     	;abs 0x44b4
    4484:	5f 42 70 00 	mov.b	&0x0070,r15	
    4488:	2f f2       	and	#4,	r15	;r2 As==10
    448a:	17 24       	jz	$+48     	;abs 0x44ba
    448c:	5f 42 70 00 	mov.b	&0x0070,r15	
    4490:	3f f0 20 00 	and	#32,	r15	;#0x0020
    4494:	15 20       	jnz	$+44     	;abs 0x44c0
    4496:	7e 40 05 00 	mov.b	#5,	r14	;#0x0005
    449a:	13 3c       	jmp	$+40     	;abs 0x44c2
    449c:	6e 43       	mov.b	#2,	r14	;r3 As==10
    449e:	11 3c       	jmp	$+36     	;abs 0x44c2
    44a0:	6e 43       	mov.b	#2,	r14	;r3 As==10
    44a2:	0f 3c       	jmp	$+32     	;abs 0x44c2
    44a4:	6e 43       	mov.b	#2,	r14	;r3 As==10
    44a6:	0d 3c       	jmp	$+28     	;abs 0x44c2
    44a8:	7e 40 05 00 	mov.b	#5,	r14	;#0x0005
    44ac:	0a 3c       	jmp	$+22     	;abs 0x44c2
    44ae:	7e 40 05 00 	mov.b	#5,	r14	;#0x0005
    44b2:	07 3c       	jmp	$+16     	;abs 0x44c2
    44b4:	7e 40 05 00 	mov.b	#5,	r14	;#0x0005
    44b8:	04 3c       	jmp	$+10     	;abs 0x44c2
    44ba:	7e 40 05 00 	mov.b	#5,	r14	;#0x0005
    44be:	01 3c       	jmp	$+4      	;abs 0x44c2
    44c0:	6e 43       	mov.b	#2,	r14	;r3 As==10
    44c2:	b2 b0 10 00 a0 01 	bit	#16,	&0x01a0	;#0x0010
    44c8:	19 24       	jz	$+52     	;abs 0x44fc
    44ca:	b2 b0 10 00 a2 01 	bit	#16,	&0x01a2	;#0x0010
    44d0:	05 24       	jz	$+12     	;abs 0x44dc
    44d2:	b2 b2 a2 01 	bit	#8,	&0x01a2	;r2 As==11
    44d6:	0f 24       	jz	$+32     	;abs 0x44f6
    44d8:	6e 43       	mov.b	#2,	r14	;r3 As==10
    44da:	10 3c       	jmp	$+34     	;abs 0x44fc
    44dc:	1f 42 a2 01 	mov	&0x01a2,r15	
    44e0:	3f b0 00 04 	bit	#1024,	r15	;#0x0400
    44e4:	0b 24       	jz	$+24     	;abs 0x44fc
    44e6:	1d 42 60 01 	mov	&0x0160,r13	
    44ea:	3d f0 00 03 	and	#768,	r13	;#0x0300
    44ee:	3d 90 00 02 	cmp	#512,	r13	;#0x0200
    44f2:	04 20       	jnz	$+10     	;abs 0x44fc
    44f4:	02 3c       	jmp	$+6      	;abs 0x44fa
    44f6:	4e 43       	clr.b	r14		
    44f8:	01 3c       	jmp	$+4      	;abs 0x44fc
    44fa:	6e 43       	mov.b	#2,	r14	;r3 As==10
    44fc:	7e 90 05 00 	cmp.b	#5,	r14	;#0x0005
    4500:	01 28       	jnc	$+4      	;abs 0x4504
    4502:	6e 42       	mov.b	#4,	r14	;r2 As==10
    4504:	c2 4e 3e 11 	mov.b	r14,	&0x113e	
    4508:	5e 42 3e 11 	mov.b	&0x113e,r14	
    450c:	0e 5e       	rla	r14		
    450e:	1e 4e 64 9a 	mov	-26012(r14),r14	;0x9a64(r14)
    4512:	3e d2       	bis	#8,	r14	;r2 As==11
    4514:	81 4e 00 00 	mov	r14,	0(r1)	;0x0000(r1)
    4518:	22 d1       	bis	@r1,	r2	
    451a:	32 c2       	dint			
    451c:	03 43       	nop			
    451e:	03 43       	nop			
    4520:	f2 93 6d 15 	cmp.b	#-1,	&0x156d	;r3 As==11
    4524:	77 27       	jz	$-272    	;abs 0x4414
    4526:	b0 12 d8 49 	call	#0x49d8	
    452a:	4b 4f       	mov.b	r15,	r11	
    452c:	7f 93       	cmp.b	#-1,	r15	;r3 As==11
    452e:	72 27       	jz	$-282    	;abs 0x4414
    4530:	4f 4a       	mov.b	r10,	r15	
    4532:	b0 12 44 4e 	call	#0x4e44	
    4536:	4f 4b       	mov.b	r11,	r15	
    4538:	b0 12 64 84 	call	#0x8464	
    453c:	67 3f       	jmp	$-304    	;abs 0x440c

0000453e <__stop_progExec__>:
    453e:	32 d0 f0 00 	bis	#240,	r2	;#0x00f0
    4542:	fd 3f       	jmp	$-4      	;abs 0x453e

00004544 <__ctors_end>:
    4544:	30 40 ce 99 	br	#0x99ce	

00004548 <PibP__FrameUtility__copyLocalExtendedAddressLE>:
    4548:	0b 12       	push	r11		
    454a:	0a 12       	push	r10		
    454c:	09 12       	push	r9		
    454e:	08 12       	push	r8		
    4550:	1c 42 9e 13 	mov	&0x139e,r12	
    4554:	1d 42 a0 13 	mov	&0x13a0,r13	
    4558:	1e 42 a2 13 	mov	&0x13a2,r14	
    455c:	1b 42 a4 13 	mov	&0x13a4,r11	
    4560:	0a 43       	clr	r10		
    4562:	49 4b       	mov.b	r11,	r9	
    4564:	08 4f       	mov	r15,	r8	
    4566:	08 5a       	add	r10,	r8	
    4568:	c8 4c 00 00 	mov.b	r12,	0(r8)	;0x0000(r8)
    456c:	8c 10       	swpb	r12		
    456e:	8d 10       	swpb	r13		
    4570:	4c ed       	xor.b	r13,	r12	
    4572:	0c ed       	xor	r13,	r12	
    4574:	8e 10       	swpb	r14		
    4576:	4d ee       	xor.b	r14,	r13	
    4578:	0d ee       	xor	r14,	r13	
    457a:	8b 10       	swpb	r11		
    457c:	4e eb       	xor.b	r11,	r14	
    457e:	0e eb       	xor	r11,	r14	
    4580:	0b 49       	mov	r9,	r11	
    4582:	1a 53       	inc	r10		
    4584:	3a 92       	cmp	#8,	r10	;r2 As==11
    4586:	ee 23       	jnz	$-34     	;abs 0x4564
    4588:	38 41       	pop	r8		
    458a:	39 41       	pop	r9		
    458c:	3a 41       	pop	r10		
    458e:	3b 41       	pop	r11		
    4590:	30 41       	ret			

00004592 <CC2420SpiP__SpiByte__write>:
    4592:	c2 4f 77 00 	mov.b	r15,	&0x0077	
    4596:	5f 42 02 00 	mov.b	&0x0002,r15	
    459a:	3f f0 40 00 	and	#64,	r15	;#0x0040
    459e:	fb 27       	jz	$-8      	;abs 0x4596
    45a0:	f2 f0 bf ff 02 00 	and.b	#-65,	&0x0002	;#0xffbf
    45a6:	5f 42 76 00 	mov.b	&0x0076,r15	
    45aa:	30 41       	ret			

000045ac <CC2420TransmitP__CSN__clr>:
    45ac:	f2 f0 fb ff 1d 00 	and.b	#-5,	&0x001d	;#0xfffb
    45b2:	30 41       	ret			

000045b4 <CC2420TransmitP__CSN__set>:
    45b4:	e2 d2 1d 00 	bis.b	#4,	&0x001d	;r2 As==10
    45b8:	30 41       	ret			

000045ba <CC2420ControlP__CSN__set>:
    45ba:	e2 d2 1d 00 	bis.b	#4,	&0x001d	;r2 As==10
    45be:	30 41       	ret			

000045c0 <CC2420ControlP__CSN__clr>:
    45c0:	f2 f0 fb ff 1d 00 	and.b	#-5,	&0x001d	;#0xfffb
    45c6:	30 41       	ret			

000045c8 <__nesc_ntoh_uint32>:
    45c8:	0b 12       	push	r11		
    45ca:	0b 4f       	mov	r15,	r11	
    45cc:	6d 4f       	mov.b	@r15,	r13	
    45ce:	0e 43       	clr	r14		
    45d0:	0f 43       	clr	r15		
    45d2:	0f 4d       	mov	r13,	r15	
    45d4:	8f 10       	swpb	r15		
    45d6:	0c 43       	clr	r12		
    45d8:	0d 43       	clr	r13		
    45da:	5d 4b 01 00 	mov.b	1(r11),	r13	;0x0001(r11)
    45de:	0e dc       	bis	r12,	r14	
    45e0:	0f dd       	bis	r13,	r15	
    45e2:	5c 4b 03 00 	mov.b	3(r11),	r12	;0x0003(r11)
    45e6:	0d 43       	clr	r13		
    45e8:	0e dc       	bis	r12,	r14	
    45ea:	0f dd       	bis	r13,	r15	
    45ec:	5c 4b 02 00 	mov.b	2(r11),	r12	;0x0002(r11)
    45f0:	4d ec       	xor.b	r12,	r13	
    45f2:	0d ec       	xor	r12,	r13	
    45f4:	8d 10       	swpb	r13		
    45f6:	4c 4c       	mov.b	r12,	r12	
    45f8:	8c 10       	swpb	r12		
    45fa:	0e dc       	bis	r12,	r14	
    45fc:	0f dd       	bis	r13,	r15	
    45fe:	3b 41       	pop	r11		
    4600:	30 41       	ret			

00004602 <CC2420ReceiveP__CSN__set>:
    4602:	e2 d2 1d 00 	bis.b	#4,	&0x001d	;r2 As==10
    4606:	30 41       	ret			

00004608 <Msp430TimerP__1__Timer__get>:
    4608:	1f 42 90 01 	mov	&0x0190,r15	
    460c:	01 3c       	jmp	$+4      	;abs 0x4610
    460e:	0f 4e       	mov	r14,	r15	
    4610:	1e 42 90 01 	mov	&0x0190,r14	
    4614:	0f 9e       	cmp	r14,	r15	
    4616:	fb 23       	jnz	$-8      	;abs 0x460e
    4618:	30 41       	ret			

0000461a <GpioCaptureC__0__enableCapture>:
    461a:	b2 f0 ef ff 84 01 	and	#-17,	&0x0184	;#0xffef
    4620:	e2 d3 1f 00 	bis.b	#2,	&0x001f	;r3 As==10
    4624:	b2 f0 fe ff 84 01 	and	#-2,	&0x0184	;#0xfffe
    462a:	b2 f0 fd ff 84 01 	and	#-3,	&0x0184	;#0xfffd
    4630:	4f 4f       	mov.b	r15,	r15	
    4632:	8f 10       	swpb	r15		
    4634:	7e 40 06 00 	mov.b	#6,	r14	;#0x0006
    4638:	0f 5f       	rla	r15		
    463a:	7e 53       	add.b	#-1,	r14	;r3 As==11
    463c:	fd 23       	jnz	$-4      	;abs 0x4638
    463e:	3f d0 00 01 	bis	#256,	r15	;#0x0100
    4642:	82 4f 84 01 	mov	r15,	&0x0184	
    4646:	b2 d0 10 00 84 01 	bis	#16,	&0x0184	;#0x0010
    464c:	4f 43       	clr.b	r15		
    464e:	30 41       	ret			

00004650 <CC2420SpiP__Strobe__strobe>:
    4650:	c2 93 cd 14 	tst.b	&0x14cd	
    4654:	03 24       	jz	$+8      	;abs 0x465c
    4656:	b0 12 92 45 	call	#0x4592	
    465a:	30 41       	ret			
    465c:	4f 43       	clr.b	r15		
    465e:	30 41       	ret			

00004660 <Msp430SpiNoDmaP__0__continueOp>:
    4660:	1e 42 aa 12 	mov	&0x12aa,r14	
    4664:	1f 42 70 15 	mov	&0x1570,r15	
    4668:	0e 93       	tst	r14		
    466a:	03 24       	jz	$+8      	;abs 0x4672
    466c:	0e 5f       	add	r15,	r14	
    466e:	6e 4e       	mov.b	@r14,	r14	
    4670:	01 3c       	jmp	$+4      	;abs 0x4674
    4672:	4e 43       	clr.b	r14		
    4674:	c2 4e 77 00 	mov.b	r14,	&0x0077	
    4678:	6f 53       	incd.b	r15		
    467a:	1e 42 74 15 	mov	&0x1574,r14	
    467e:	4d 4f       	mov.b	r15,	r13	
    4680:	0e 9d       	cmp	r13,	r14	
    4682:	1c 2c       	jc	$+58     	;abs 0x46bc
    4684:	4f 4e       	mov.b	r14,	r15	
    4686:	1a 3c       	jmp	$+54     	;abs 0x46bc
    4688:	5e 42 02 00 	mov.b	&0x0002,r14	
    468c:	3e f0 40 00 	and	#64,	r14	;#0x0040
    4690:	fb 27       	jz	$-8      	;abs 0x4688
    4692:	5c 42 76 00 	mov.b	&0x0076,r12	
    4696:	1e 42 3e 14 	mov	&0x143e,r14	
    469a:	0e 93       	tst	r14		
    469c:	03 24       	jz	$+8      	;abs 0x46a4
    469e:	0d 5e       	add	r14,	r13	
    46a0:	cd 4c 00 00 	mov.b	r12,	0(r13)	;0x0000(r13)
    46a4:	1e 42 aa 12 	mov	&0x12aa,r14	
    46a8:	0e 93       	tst	r14		
    46aa:	04 24       	jz	$+10     	;abs 0x46b4
    46ac:	1e 52 70 15 	add	&0x1570,r14	
    46b0:	6e 4e       	mov.b	@r14,	r14	
    46b2:	01 3c       	jmp	$+4      	;abs 0x46b6
    46b4:	4e 43       	clr.b	r14		
    46b6:	c2 4e 77 00 	mov.b	r14,	&0x0077	
    46ba:	01 3c       	jmp	$+4      	;abs 0x46be
    46bc:	4f 4f       	mov.b	r15,	r15	
    46be:	1d 42 70 15 	mov	&0x1570,r13	
    46c2:	0e 4d       	mov	r13,	r14	
    46c4:	1e 53       	inc	r14		
    46c6:	82 4e 70 15 	mov	r14,	&0x1570	
    46ca:	0e 9f       	cmp	r15,	r14	
    46cc:	dd 2b       	jnc	$-68     	;abs 0x4688
    46ce:	30 41       	ret			

000046d0 <MotePlatformC__TOSH_FLASH_M25P_DP_bit>:
    46d0:	4f 93       	tst.b	r15		
    46d2:	04 24       	jz	$+10     	;abs 0x46dc
    46d4:	5f 42 19 00 	mov.b	&0x0019,r15	
    46d8:	6f d3       	bis.b	#2,	r15	;r3 As==10
    46da:	04 3c       	jmp	$+10     	;abs 0x46e4
    46dc:	5f 42 19 00 	mov.b	&0x0019,r15	
    46e0:	7f f0 fd ff 	and.b	#-3,	r15	;#0xfffd
    46e4:	c2 4f 19 00 	mov.b	r15,	&0x0019	
    46e8:	f2 d2 19 00 	bis.b	#8,	&0x0019	;r2 As==11
    46ec:	f2 f0 f7 ff 19 00 	and.b	#-9,	&0x0019	;#0xfff7
    46f2:	30 41       	ret			

000046f4 <PibP__FrameUtility__convertToNative>:
    46f4:	0b 12       	push	r11		
    46f6:	0a 12       	push	r10		
    46f8:	09 12       	push	r9		
    46fa:	08 12       	push	r8		
    46fc:	07 12       	push	r7		
    46fe:	06 12       	push	r6		
    4700:	05 12       	push	r5		
    4702:	04 12       	push	r4		
    4704:	31 50 f2 ff 	add	#-14,	r1	;#0xfff2
    4708:	06 4f       	mov	r15,	r6	
    470a:	5d 4e 07 00 	mov.b	7(r14),	r13	;0x0007(r14)
    470e:	0a 43       	clr	r10		
    4710:	0b 43       	clr	r11		
    4712:	0b 4d       	mov	r13,	r11	
    4714:	8b 10       	swpb	r11		
    4716:	0c 43       	clr	r12		
    4718:	0d 43       	clr	r13		
    471a:	5d 4e 06 00 	mov.b	6(r14),	r13	;0x0006(r14)
    471e:	0a dc       	bis	r12,	r10	
    4720:	0b dd       	bis	r13,	r11	
    4722:	5c 4e 04 00 	mov.b	4(r14),	r12	;0x0004(r14)
    4726:	0d 43       	clr	r13		
    4728:	0a dc       	bis	r12,	r10	
    472a:	0b dd       	bis	r13,	r11	
    472c:	5c 4e 05 00 	mov.b	5(r14),	r12	;0x0005(r14)
    4730:	4d ec       	xor.b	r12,	r13	
    4732:	0d ec       	xor	r12,	r13	
    4734:	8d 10       	swpb	r13		
    4736:	4c 4c       	mov.b	r12,	r12	
    4738:	8c 10       	swpb	r12		
    473a:	0a dc       	bis	r12,	r10	
    473c:	0b dd       	bis	r13,	r11	
    473e:	81 43 06 00 	mov	#0,	6(r1)	;r3 As==00, 0x0006(r1)
    4742:	81 43 08 00 	mov	#0,	8(r1)	;r3 As==00, 0x0008(r1)
    4746:	81 43 0a 00 	mov	#0,	10(r1)	;r3 As==00, 0x000a(r1)
    474a:	81 43 0c 00 	mov	#0,	12(r1)	;r3 As==00, 0x000c(r1)
    474e:	81 43 08 00 	mov	#0,	8(r1)	;r3 As==00, 0x0008(r1)
    4752:	81 4a 0a 00 	mov	r10,	10(r1)	;0x000a(r1)
    4756:	81 4b 0c 00 	mov	r11,	12(r1)	;0x000c(r1)
    475a:	5d 4e 03 00 	mov.b	3(r14),	r13	;0x0003(r14)
    475e:	0a 43       	clr	r10		
    4760:	0b 43       	clr	r11		
    4762:	0b 4d       	mov	r13,	r11	
    4764:	8b 10       	swpb	r11		
    4766:	0c 43       	clr	r12		
    4768:	0d 43       	clr	r13		
    476a:	5d 4e 02 00 	mov.b	2(r14),	r13	;0x0002(r14)
    476e:	04 4a       	mov	r10,	r4	
    4770:	05 4b       	mov	r11,	r5	
    4772:	04 dc       	bis	r12,	r4	
    4774:	05 dd       	bis	r13,	r5	
    4776:	6c 4e       	mov.b	@r14,	r12	
    4778:	0d 43       	clr	r13		
    477a:	04 dc       	bis	r12,	r4	
    477c:	05 dd       	bis	r13,	r5	
    477e:	5c 4e 01 00 	mov.b	1(r14),	r12	;0x0001(r14)
    4782:	4d ec       	xor.b	r12,	r13	
    4784:	0d ec       	xor	r12,	r13	
    4786:	8d 10       	swpb	r13		
    4788:	4c 4c       	mov.b	r12,	r12	
    478a:	8c 10       	swpb	r12		
    478c:	08 44       	mov	r4,	r8	
    478e:	09 45       	mov	r5,	r9	
    4790:	08 dc       	bis	r12,	r8	
    4792:	09 dd       	bis	r13,	r9	
    4794:	0a 43       	clr	r10		
    4796:	0b 43       	clr	r11		
    4798:	1c 41 06 00 	mov	6(r1),	r12	;0x0006(r1)
    479c:	1d 41 08 00 	mov	8(r1),	r13	;0x0008(r1)
    47a0:	1e 41 0a 00 	mov	10(r1),	r14	;0x000a(r1)
    47a4:	1f 41 0c 00 	mov	12(r1),	r15	;0x000c(r1)
    47a8:	0c 58       	add	r8,	r12	
    47aa:	0d 69       	addc	r9,	r13	
    47ac:	0e 6a       	addc	r10,	r14	
    47ae:	0f 6b       	addc	r11,	r15	
    47b0:	86 4c 00 00 	mov	r12,	0(r6)	;0x0000(r6)
    47b4:	86 4d 02 00 	mov	r13,	2(r6)	;0x0002(r6)
    47b8:	86 4e 04 00 	mov	r14,	4(r6)	;0x0004(r6)
    47bc:	86 4f 06 00 	mov	r15,	6(r6)	;0x0006(r6)
    47c0:	31 50 0e 00 	add	#14,	r1	;#0x000e
    47c4:	34 41       	pop	r4		
    47c6:	35 41       	pop	r5		
    47c8:	36 41       	pop	r6		
    47ca:	37 41       	pop	r7		
    47cc:	38 41       	pop	r8		
    47ce:	39 41       	pop	r9		
    47d0:	3a 41       	pop	r10		
    47d2:	3b 41       	pop	r11		
    47d4:	30 41       	ret			

000047d6 <PoolP__0__Pool__get>:
    47d6:	5d 42 61 13 	mov.b	&0x1361,r13	
    47da:	4d 93       	tst.b	r13		
    47dc:	16 24       	jz	$+46     	;abs 0x480a
    47de:	5c 42 a7 12 	mov.b	&0x12a7,r12	
    47e2:	4f 4c       	mov.b	r12,	r15	
    47e4:	0f 5f       	rla	r15		
    47e6:	0e 4f       	mov	r15,	r14	
    47e8:	3e 50 c2 14 	add	#5314,	r14	;#0x14c2
    47ec:	2f 4e       	mov	@r14,	r15	
    47ee:	8e 43 00 00 	mov	#0,	0(r14)	;r3 As==00, 0x0000(r14)
    47f2:	7d 53       	add.b	#-1,	r13	;r3 As==11
    47f4:	c2 4d 61 13 	mov.b	r13,	&0x1361	
    47f8:	4e 4c       	mov.b	r12,	r14	
    47fa:	5e 53       	inc.b	r14		
    47fc:	c2 4e a7 12 	mov.b	r14,	&0x12a7	
    4800:	6e 92       	cmp.b	#4,	r14	;r2 As==10
    4802:	04 20       	jnz	$+10     	;abs 0x480c
    4804:	c2 43 a7 12 	mov.b	#0,	&0x12a7	;r3 As==00
    4808:	30 41       	ret			
    480a:	0f 43       	clr	r15		
    480c:	30 41       	ret			

0000480e <PoolP__1__Pool__get>:
    480e:	5d 42 60 13 	mov.b	&0x1360,r13	
    4812:	4d 93       	tst.b	r13		
    4814:	17 24       	jz	$+48     	;abs 0x4844
    4816:	5c 42 76 15 	mov.b	&0x1576,r12	
    481a:	4f 4c       	mov.b	r12,	r15	
    481c:	0f 5f       	rla	r15		
    481e:	0e 4f       	mov	r15,	r14	
    4820:	3e 50 96 15 	add	#5526,	r14	;#0x1596
    4824:	2f 4e       	mov	@r14,	r15	
    4826:	8e 43 00 00 	mov	#0,	0(r14)	;r3 As==00, 0x0000(r14)
    482a:	7d 53       	add.b	#-1,	r13	;r3 As==11
    482c:	c2 4d 60 13 	mov.b	r13,	&0x1360	
    4830:	4e 4c       	mov.b	r12,	r14	
    4832:	5e 53       	inc.b	r14		
    4834:	c2 4e 76 15 	mov.b	r14,	&0x1576	
    4838:	7e 90 03 00 	cmp.b	#3,	r14	;#0x0003
    483c:	04 20       	jnz	$+10     	;abs 0x4846
    483e:	c2 43 76 15 	mov.b	#0,	&0x1576	;r3 As==00
    4842:	30 41       	ret			
    4844:	0f 43       	clr	r15		
    4846:	30 41       	ret			

00004848 <PibP__FrameUtility__writeHeader>:
    4848:	0b 12       	push	r11		
    484a:	0a 12       	push	r10		
    484c:	09 12       	push	r9		
    484e:	08 12       	push	r8		
    4850:	07 12       	push	r7		
    4852:	06 12       	push	r6		
    4854:	05 12       	push	r5		
    4856:	04 12       	push	r4		
    4858:	54 41 12 00 	mov.b	18(r1),	r4	;0x0012(r1)
    485c:	17 41 14 00 	mov	20(r1),	r7	;0x0014(r1)
    4860:	19 41 16 00 	mov	22(r1),	r9	;0x0016(r1)
    4864:	4b 4e       	mov.b	r14,	r11	
    4866:	6b 83       	decd.b	r11		
    4868:	6b 93       	cmp.b	#2,	r11	;r3 As==10
    486a:	2f 2c       	jc	$+96     	;abs 0x48ca
    486c:	cf 4d 03 00 	mov.b	r13,	3(r15)	;0x0003(r15)
    4870:	0b 4d       	mov	r13,	r11	
    4872:	8b 10       	swpb	r11		
    4874:	cf 4b 04 00 	mov.b	r11,	4(r15)	;0x0004(r15)
    4878:	6e 93       	cmp.b	#2,	r14	;r3 As==10
    487a:	09 20       	jnz	$+20     	;abs 0x488e
    487c:	2e 4c       	mov	@r12,	r14	
    487e:	cf 4e 05 00 	mov.b	r14,	5(r15)	;0x0005(r15)
    4882:	8e 10       	swpb	r14		
    4884:	cf 4e 06 00 	mov.b	r14,	6(r15)	;0x0006(r15)
    4888:	7e 40 07 00 	mov.b	#7,	r14	;#0x0007
    488c:	20 3c       	jmp	$+66     	;abs 0x48ce
    488e:	2a 4c       	mov	@r12,	r10	
    4890:	1b 4c 02 00 	mov	2(r12),	r11	;0x0002(r12)
    4894:	1e 4c 04 00 	mov	4(r12),	r14	;0x0004(r12)
    4898:	1c 4c 06 00 	mov	6(r12),	r12	;0x0006(r12)
    489c:	08 4f       	mov	r15,	r8	
    489e:	05 4f       	mov	r15,	r5	
    48a0:	35 52       	add	#8,	r5	;r2 As==11
    48a2:	46 4c       	mov.b	r12,	r6	
    48a4:	c8 4a 05 00 	mov.b	r10,	5(r8)	;0x0005(r8)
    48a8:	8a 10       	swpb	r10		
    48aa:	8b 10       	swpb	r11		
    48ac:	4a eb       	xor.b	r11,	r10	
    48ae:	0a eb       	xor	r11,	r10	
    48b0:	8e 10       	swpb	r14		
    48b2:	4b ee       	xor.b	r14,	r11	
    48b4:	0b ee       	xor	r14,	r11	
    48b6:	8c 10       	swpb	r12		
    48b8:	4e ec       	xor.b	r12,	r14	
    48ba:	0e ec       	xor	r12,	r14	
    48bc:	0c 46       	mov	r6,	r12	
    48be:	18 53       	inc	r8		
    48c0:	08 95       	cmp	r5,	r8	
    48c2:	f0 23       	jnz	$-30     	;abs 0x48a4
    48c4:	7e 40 0d 00 	mov.b	#13,	r14	;#0x000d
    48c8:	02 3c       	jmp	$+6      	;abs 0x48ce
    48ca:	7e 40 03 00 	mov.b	#3,	r14	;#0x0003
    48ce:	4c 44       	mov.b	r4,	r12	
    48d0:	6c 83       	decd.b	r12		
    48d2:	6c 93       	cmp.b	#2,	r12	;r3 As==10
    48d4:	36 2c       	jc	$+110    	;abs 0x4942
    48d6:	0d 97       	cmp	r7,	r13	
    48d8:	03 20       	jnz	$+8      	;abs 0x48e0
    48da:	c1 93 18 00 	tst.b	24(r1)		;0x0018(r1)
    48de:	08 20       	jnz	$+18     	;abs 0x48f0
    48e0:	4d 4e       	mov.b	r14,	r13	
    48e2:	0d 5f       	add	r15,	r13	
    48e4:	cd 47 00 00 	mov.b	r7,	0(r13)	;0x0000(r13)
    48e8:	87 10       	swpb	r7		
    48ea:	cd 47 01 00 	mov.b	r7,	1(r13)	;0x0001(r13)
    48ee:	6e 53       	incd.b	r14		
    48f0:	4d 4e       	mov.b	r14,	r13	
    48f2:	64 93       	cmp.b	#2,	r4	;r3 As==10
    48f4:	09 20       	jnz	$+20     	;abs 0x4908
    48f6:	2c 49       	mov	@r9,	r12	
    48f8:	0f 5d       	add	r13,	r15	
    48fa:	cf 4c 00 00 	mov.b	r12,	0(r15)	;0x0000(r15)
    48fe:	8c 10       	swpb	r12		
    4900:	cf 4c 01 00 	mov.b	r12,	1(r15)	;0x0001(r15)
    4904:	6e 53       	incd.b	r14		
    4906:	1d 3c       	jmp	$+60     	;abs 0x4942
    4908:	0f 5d       	add	r13,	r15	
    490a:	2b 49       	mov	@r9,	r11	
    490c:	1c 49 02 00 	mov	2(r9),	r12	;0x0002(r9)
    4910:	1d 49 04 00 	mov	4(r9),	r13	;0x0004(r9)
    4914:	1a 49 06 00 	mov	6(r9),	r10	;0x0006(r9)
    4918:	09 43       	clr	r9		
    491a:	48 4a       	mov.b	r10,	r8	
    491c:	07 4f       	mov	r15,	r7	
    491e:	07 59       	add	r9,	r7	
    4920:	c7 4b 00 00 	mov.b	r11,	0(r7)	;0x0000(r7)
    4924:	8b 10       	swpb	r11		
    4926:	8c 10       	swpb	r12		
    4928:	4b ec       	xor.b	r12,	r11	
    492a:	0b ec       	xor	r12,	r11	
    492c:	8d 10       	swpb	r13		
    492e:	4c ed       	xor.b	r13,	r12	
    4930:	0c ed       	xor	r13,	r12	
    4932:	8a 10       	swpb	r10		
    4934:	4d ea       	xor.b	r10,	r13	
    4936:	0d ea       	xor	r10,	r13	
    4938:	0a 48       	mov	r8,	r10	
    493a:	19 53       	inc	r9		
    493c:	39 92       	cmp	#8,	r9	;r2 As==11
    493e:	ee 23       	jnz	$-34     	;abs 0x491c
    4940:	7e 52       	add.b	#8,	r14	;r2 As==11
    4942:	4f 4e       	mov.b	r14,	r15	
    4944:	34 41       	pop	r4		
    4946:	35 41       	pop	r5		
    4948:	36 41       	pop	r6		
    494a:	37 41       	pop	r7		
    494c:	38 41       	pop	r8		
    494e:	39 41       	pop	r9		
    4950:	3a 41       	pop	r10		
    4952:	3b 41       	pop	r11		
    4954:	30 41       	ret			

00004956 <PibP__Frame__getSrcAddr>:
    4956:	0b 12       	push	r11		
    4958:	0b 4e       	mov	r14,	r11	
    495a:	5c 4f 02 00 	mov.b	2(r15),	r12	;0x0002(r15)
    495e:	4c 93       	tst.b	r12		
    4960:	2f 34       	jge	$+96     	;abs 0x49c0
    4962:	4e 4c       	mov.b	r12,	r14	
    4964:	7e f0 0c 00 	and.b	#12,	r14	;#0x000c
    4968:	7e 92       	cmp.b	#8,	r14	;r2 As==11
    496a:	06 24       	jz	$+14     	;abs 0x4978
    496c:	7e 90 0c 00 	cmp.b	#12,	r14	;#0x000c
    4970:	06 24       	jz	$+14     	;abs 0x497e
    4972:	7d 40 03 00 	mov.b	#3,	r13	;#0x0003
    4976:	05 3c       	jmp	$+12     	;abs 0x4982
    4978:	7d 40 07 00 	mov.b	#7,	r13	;#0x0007
    497c:	02 3c       	jmp	$+6      	;abs 0x4982
    497e:	7d 40 0d 00 	mov.b	#13,	r13	;#0x000d
    4982:	5e 4f 01 00 	mov.b	1(r15),	r14	;0x0001(r15)
    4986:	3e f0 40 00 	and	#64,	r14	;#0x0040
    498a:	02 24       	jz	$+6      	;abs 0x4990
    498c:	3c b2       	bit	#8,	r12	;r2 As==11
    498e:	01 20       	jnz	$+4      	;abs 0x4992
    4990:	6d 53       	incd.b	r13		
    4992:	3c f0 c0 00 	and	#192,	r12	;#0x00c0
    4996:	4d 4d       	mov.b	r13,	r13	
    4998:	0f 5d       	add	r13,	r15	
    499a:	3c 90 80 00 	cmp	#128,	r12	;#0x0080
    499e:	09 20       	jnz	$+20     	;abs 0x49b2
    49a0:	5c 4f 02 00 	mov.b	2(r15),	r12	;0x0002(r15)
    49a4:	8c 10       	swpb	r12		
    49a6:	5f 4f 01 00 	mov.b	1(r15),	r15	;0x0001(r15)
    49aa:	0c df       	bis	r15,	r12	
    49ac:	8b 4c 00 00 	mov	r12,	0(r11)	;0x0000(r11)
    49b0:	05 3c       	jmp	$+12     	;abs 0x49bc
    49b2:	0e 4f       	mov	r15,	r14	
    49b4:	1e 53       	inc	r14		
    49b6:	0f 4b       	mov	r11,	r15	
    49b8:	b0 12 f4 46 	call	#0x46f4	
    49bc:	4f 43       	clr.b	r15		
    49be:	01 3c       	jmp	$+4      	;abs 0x49c2
    49c0:	5f 43       	mov.b	#1,	r15	;r3 As==01
    49c2:	3b 41       	pop	r11		
    49c4:	30 41       	ret			

000049c6 <HplMsp430Usart0P__Usart__resetUsart>:
    49c6:	4f 93       	tst.b	r15		
    49c8:	03 24       	jz	$+8      	;abs 0x49d0
    49ca:	d2 43 70 00 	mov.b	#1,	&0x0070	;r3 As==01
    49ce:	30 41       	ret			
    49d0:	f2 f0 fe ff 70 00 	and.b	#-2,	&0x0070	;#0xfffe
    49d6:	30 41       	ret			

000049d8 <SchedulerBasicP__popTask.part.135>:
    49d8:	5f 42 6d 15 	mov.b	&0x156d,r15	
    49dc:	4e 4f       	mov.b	r15,	r14	
    49de:	3e 50 8a 11 	add	#4490,	r14	;#0x118a
    49e2:	6d 4e       	mov.b	@r14,	r13	
    49e4:	c2 4d 6d 15 	mov.b	r13,	&0x156d	
    49e8:	7d 93       	cmp.b	#-1,	r13	;r3 As==11
    49ea:	02 20       	jnz	$+6      	;abs 0x49f0
    49ec:	f2 43 92 15 	mov.b	#-1,	&0x1592	;r3 As==11
    49f0:	fe 43 00 00 	mov.b	#-1,	0(r14)	;r3 As==11, 0x0000(r14)
    49f4:	30 41       	ret			

000049f6 <Msp430TimerP__0__Event__fired>:
    49f6:	5f 93       	cmp.b	#1,	r15	;r3 As==01
    49f8:	0c 24       	jz	$+26     	;abs 0x4a12
    49fa:	03 28       	jnc	$+8      	;abs 0x4a02
    49fc:	6f 93       	cmp.b	#2,	r15	;r3 As==10
    49fe:	18 20       	jnz	$+50     	;abs 0x4a30
    4a00:	10 3c       	jmp	$+34     	;abs 0x4a22
    4a02:	1f 42 62 01 	mov	&0x0162,r15	
    4a06:	8f 10       	swpb	r15		
    4a08:	5f f3       	and.b	#1,	r15	;r3 As==01
    4a0a:	12 24       	jz	$+38     	;abs 0x4a30
    4a0c:	1f 42 72 01 	mov	&0x0172,r15	
    4a10:	30 41       	ret			
    4a12:	1f 42 64 01 	mov	&0x0164,r15	
    4a16:	8f 10       	swpb	r15		
    4a18:	5f f3       	and.b	#1,	r15	;r3 As==01
    4a1a:	0a 24       	jz	$+22     	;abs 0x4a30
    4a1c:	1f 42 74 01 	mov	&0x0174,r15	
    4a20:	30 41       	ret			
    4a22:	1f 42 66 01 	mov	&0x0166,r15	
    4a26:	8f 10       	swpb	r15		
    4a28:	5f f3       	and.b	#1,	r15	;r3 As==01
    4a2a:	02 24       	jz	$+6      	;abs 0x4a30
    4a2c:	1f 42 76 01 	mov	&0x0176,r15	
    4a30:	30 41       	ret			

00004a32 <ArbiterP__0__ResourceConfigure__unconfigure.part.145>:
    4a32:	5f 43       	mov.b	#1,	r15	;r3 As==01
    4a34:	b0 12 c6 49 	call	#0x49c6	
    4a38:	f2 f0 bf ff 04 00 	and.b	#-65,	&0x0004	;#0xffbf
    4a3e:	3f 40 1b 00 	mov	#27,	r15	;#0x001b
    4a42:	ff f0 fd ff 00 00 	and.b	#-3,	0(r15)	;#0xfffd, 0x0000(r15)
    4a48:	ff f0 fb ff 00 00 	and.b	#-5,	0(r15)	;#0xfffb, 0x0000(r15)
    4a4e:	ff f0 f7 ff 00 00 	and.b	#-9,	0(r15)	;#0xfff7, 0x0000(r15)
    4a54:	4f 43       	clr.b	r15		
    4a56:	b0 12 c6 49 	call	#0x49c6	
    4a5a:	30 41       	ret			

00004a5c <CC2420SpiP__Reg__write>:
    4a5c:	0b 12       	push	r11		
    4a5e:	0b 4e       	mov	r14,	r11	
    4a60:	c2 93 cd 14 	tst.b	&0x14cd	
    4a64:	0a 24       	jz	$+22     	;abs 0x4a7a
    4a66:	b0 12 92 45 	call	#0x4592	
    4a6a:	0f 4b       	mov	r11,	r15	
    4a6c:	8f 10       	swpb	r15		
    4a6e:	b0 12 92 45 	call	#0x4592	
    4a72:	4f 4b       	mov.b	r11,	r15	
    4a74:	b0 12 92 45 	call	#0x4592	
    4a78:	01 3c       	jmp	$+4      	;abs 0x4a7c
    4a7a:	4f 43       	clr.b	r15		
    4a7c:	3b 41       	pop	r11		
    4a7e:	30 41       	ret			

00004a80 <CC2420ControlP__writeFsctrl>:
    4a80:	5e 42 fa 14 	mov.b	&0x14fa,r14	
    4a84:	0f 4e       	mov	r14,	r15	
    4a86:	0f 5f       	rla	r15		
    4a88:	0f 5f       	rla	r15		
    4a8a:	0f 5e       	add	r14,	r15	
    4a8c:	3f 50 2e 01 	add	#302,	r15	;#0x012e
    4a90:	0e 4f       	mov	r15,	r14	
    4a92:	3e d0 00 40 	bis	#16384,	r14	;#0x4000
    4a96:	7f 40 18 00 	mov.b	#24,	r15	;#0x0018
    4a9a:	b0 12 5c 4a 	call	#0x4a5c	
    4a9e:	30 41       	ret			

00004aa0 <CC2420ControlP__writeMdmctrl0>:
    4aa0:	0b 12       	push	r11		
    4aa2:	0a 12       	push	r10		
    4aa4:	5e 42 68 13 	mov.b	&0x1368,r14	
    4aa8:	5c 42 7c 11 	mov.b	&0x117c,r12	
    4aac:	5b 42 b4 11 	mov.b	&0x11b4,r11	
    4ab0:	c2 93 9f 12 	tst.b	&0x129f	
    4ab4:	04 24       	jz	$+10     	;abs 0x4abe
    4ab6:	1d 43       	mov	#1,	r13	;r3 As==01
    4ab8:	c2 93 f8 14 	tst.b	&0x14f8	
    4abc:	01 20       	jnz	$+4      	;abs 0x4ac0
    4abe:	0d 43       	clr	r13		
    4ac0:	1f 43       	mov	#1,	r15	;r3 As==01
    4ac2:	4e 93       	tst.b	r14		
    4ac4:	01 20       	jnz	$+4      	;abs 0x4ac8
    4ac6:	0f 43       	clr	r15		
    4ac8:	8f 10       	swpb	r15		
    4aca:	0f 5f       	rla	r15		
    4acc:	0f 5f       	rla	r15		
    4ace:	0f 5f       	rla	r15		
    4ad0:	0f 5f       	rla	r15		
    4ad2:	0f 5f       	rla	r15		
    4ad4:	1e 43       	mov	#1,	r14	;r3 As==01
    4ad6:	4c 93       	tst.b	r12		
    4ad8:	01 20       	jnz	$+4      	;abs 0x4adc
    4ada:	0e 43       	clr	r14		
    4adc:	8e 10       	swpb	r14		
    4ade:	0e 5e       	rla	r14		
    4ae0:	0e 5e       	rla	r14		
    4ae2:	0e 5e       	rla	r14		
    4ae4:	0e 5e       	rla	r14		
    4ae6:	0f de       	bis	r14,	r15	
    4ae8:	3f d0 22 02 	bis	#546,	r15	;#0x0222
    4aec:	1c 43       	mov	#1,	r12	;r3 As==01
    4aee:	4b 93       	tst.b	r11		
    4af0:	01 20       	jnz	$+4      	;abs 0x4af4
    4af2:	0c 43       	clr	r12		
    4af4:	8c 10       	swpb	r12		
    4af6:	0c 5c       	rla	r12		
    4af8:	0c 5c       	rla	r12		
    4afa:	0c 5c       	rla	r12		
    4afc:	0f dc       	bis	r12,	r15	
    4afe:	5b 42 82 15 	mov.b	&0x1582,r11	
    4b02:	7a 40 06 00 	mov.b	#6,	r10	;#0x0006
    4b06:	0b 5b       	rla	r11		
    4b08:	7a 53       	add.b	#-1,	r10	;r3 As==11
    4b0a:	fd 23       	jnz	$-4      	;abs 0x4b06
    4b0c:	0e 4f       	mov	r15,	r14	
    4b0e:	0e db       	bis	r11,	r14	
    4b10:	4d 4d       	mov.b	r13,	r13	
    4b12:	0d 5d       	rla	r13		
    4b14:	0d 5d       	rla	r13		
    4b16:	0d 5d       	rla	r13		
    4b18:	0d 5d       	rla	r13		
    4b1a:	0e dd       	bis	r13,	r14	
    4b1c:	7f 40 11 00 	mov.b	#17,	r15	;#0x0011
    4b20:	b0 12 5c 4a 	call	#0x4a5c	
    4b24:	3a 41       	pop	r10		
    4b26:	3b 41       	pop	r11		
    4b28:	30 41       	ret			

00004b2a <CC2420ControlP__writeId>:
    4b2a:	0b 12       	push	r11		
    4b2c:	31 50 f4 ff 	add	#-12,	r1	;#0xfff4
    4b30:	0f 41       	mov	r1,	r15	
    4b32:	b0 12 48 45 	call	#0x4548	
    4b36:	1f 42 00 12 	mov	&0x1200,r15	
    4b3a:	c1 4f 08 00 	mov.b	r15,	8(r1)	;0x0008(r1)
    4b3e:	0e 4f       	mov	r15,	r14	
    4b40:	8e 10       	swpb	r14		
    4b42:	c1 4e 09 00 	mov.b	r14,	9(r1)	;0x0009(r1)
    4b46:	1e 42 c0 12 	mov	&0x12c0,r14	
    4b4a:	c1 4e 0a 00 	mov.b	r14,	10(r1)	;0x000a(r1)
    4b4e:	8e 10       	swpb	r14		
    4b50:	c1 4e 0b 00 	mov.b	r14,	11(r1)	;0x000b(r1)
    4b54:	1e 43       	mov	#1,	r14	;r3 As==01
    4b56:	3f 93       	cmp	#-1,	r15	;r3 As==11
    4b58:	01 24       	jz	$+4      	;abs 0x4b5c
    4b5a:	0e 43       	clr	r14		
    4b5c:	8e 10       	swpb	r14		
    4b5e:	0e 5e       	rla	r14		
    4b60:	0e 5e       	rla	r14		
    4b62:	0e 5e       	rla	r14		
    4b64:	3e d0 7f 02 	bis	#639,	r14	;#0x027f
    4b68:	7f 40 1c 00 	mov.b	#28,	r15	;#0x001c
    4b6c:	b0 12 5c 4a 	call	#0x4a5c	
    4b70:	c2 93 cd 14 	tst.b	&0x14cd	
    4b74:	12 24       	jz	$+38     	;abs 0x4b9a
    4b76:	7f 40 e0 ff 	mov.b	#-32,	r15	;#0xffe0
    4b7a:	b0 12 92 45 	call	#0x4592	
    4b7e:	7f 40 80 ff 	mov.b	#-128,	r15	;#0xff80
    4b82:	b0 12 92 45 	call	#0x4592	
    4b86:	0b 43       	clr	r11		
    4b88:	0f 41       	mov	r1,	r15	
    4b8a:	0f 5b       	add	r11,	r15	
    4b8c:	6f 4f       	mov.b	@r15,	r15	
    4b8e:	b0 12 92 45 	call	#0x4592	
    4b92:	1b 53       	inc	r11		
    4b94:	3b 90 0c 00 	cmp	#12,	r11	;#0x000c
    4b98:	f7 23       	jnz	$-16     	;abs 0x4b88
    4b9a:	31 50 0c 00 	add	#12,	r1	;#0x000c
    4b9e:	3b 41       	pop	r11		
    4ba0:	30 41       	ret			

00004ba2 <PoolP__1__Pool__put>:
    4ba2:	5d 42 60 13 	mov.b	&0x1360,r13	
    4ba6:	7d 90 03 00 	cmp.b	#3,	r13	;#0x0003
    4baa:	11 2c       	jc	$+36     	;abs 0x4bce
    4bac:	5e 42 76 15 	mov.b	&0x1576,r14	
    4bb0:	4c 4d       	mov.b	r13,	r12	
    4bb2:	0e 5c       	add	r12,	r14	
    4bb4:	3e 90 03 00 	cmp	#3,	r14	;#0x0003
    4bb8:	02 28       	jnc	$+6      	;abs 0x4bbe
    4bba:	3e 50 fd ff 	add	#-3,	r14	;#0xfffd
    4bbe:	0e 5e       	rla	r14		
    4bc0:	8e 4f 96 15 	mov	r15,	5526(r14);0x1596(r14)
    4bc4:	5d 53       	inc.b	r13		
    4bc6:	c2 4d 60 13 	mov.b	r13,	&0x1360	
    4bca:	4f 43       	clr.b	r15		
    4bcc:	30 41       	ret			
    4bce:	5f 43       	mov.b	#1,	r15	;r3 As==01
    4bd0:	30 41       	ret			

00004bd2 <PoolP__0__Pool__put>:
    4bd2:	5d 42 61 13 	mov.b	&0x1361,r13	
    4bd6:	6d 92       	cmp.b	#4,	r13	;r2 As==10
    4bd8:	0f 2c       	jc	$+32     	;abs 0x4bf8
    4bda:	5e 42 a7 12 	mov.b	&0x12a7,r14	
    4bde:	4c 4d       	mov.b	r13,	r12	
    4be0:	0e 5c       	add	r12,	r14	
    4be2:	2e 92       	cmp	#4,	r14	;r2 As==10
    4be4:	01 28       	jnc	$+4      	;abs 0x4be8
    4be6:	2e 82       	sub	#4,	r14	;r2 As==10
    4be8:	0e 5e       	rla	r14		
    4bea:	8e 4f c2 14 	mov	r15,	5314(r14);0x14c2(r14)
    4bee:	5d 53       	inc.b	r13		
    4bf0:	c2 4d 61 13 	mov.b	r13,	&0x1361	
    4bf4:	4f 43       	clr.b	r15		
    4bf6:	30 41       	ret			
    4bf8:	5f 43       	mov.b	#1,	r15	;r3 As==01
    4bfa:	30 41       	ret			

00004bfc <PibP__FrameUtility__getMHRLength.part.156>:
    4bfc:	0b 12       	push	r11		
    4bfe:	4b 4e       	mov.b	r14,	r11	
    4c00:	3b b2       	bit	#8,	r11	;r2 As==11
    4c02:	05 24       	jz	$+12     	;abs 0x4c0e
    4c04:	2b b2       	bit	#4,	r11	;r2 As==10
    4c06:	06 24       	jz	$+14     	;abs 0x4c14
    4c08:	7c 40 0d 00 	mov.b	#13,	r12	;#0x000d
    4c0c:	05 3c       	jmp	$+12     	;abs 0x4c18
    4c0e:	7c 40 03 00 	mov.b	#3,	r12	;#0x0003
    4c12:	02 3c       	jmp	$+6      	;abs 0x4c18
    4c14:	7c 40 07 00 	mov.b	#7,	r12	;#0x0007
    4c18:	4e 93       	tst.b	r14		
    4c1a:	0b 34       	jge	$+24     	;abs 0x4c32
    4c1c:	7f f0 40 00 	and.b	#64,	r15	;#0x0040
    4c20:	02 24       	jz	$+6      	;abs 0x4c26
    4c22:	6c 53       	incd.b	r12		
    4c24:	01 3c       	jmp	$+4      	;abs 0x4c28
    4c26:	6c 52       	add.b	#4,	r12	;r2 As==10
    4c28:	3b f0 40 00 	and	#64,	r11	;#0x0040
    4c2c:	02 24       	jz	$+6      	;abs 0x4c32
    4c2e:	7c 50 06 00 	add.b	#6,	r12	;#0x0006
    4c32:	cd 4c 00 00 	mov.b	r12,	0(r13)	;0x0000(r13)
    4c36:	4f 43       	clr.b	r15		
    4c38:	3b 41       	pop	r11		
    4c3a:	30 41       	ret			

00004c3c <DispatchQueueP__0__Queue__dequeue>:
    4c3c:	5d 42 30 11 	mov.b	&0x1130,r13	
    4c40:	4f 4d       	mov.b	r13,	r15	
    4c42:	0f 5f       	rla	r15		
    4c44:	1f 4f 26 15 	mov	5414(r15),r15	;0x1526(r15)
    4c48:	5e 42 2c 11 	mov.b	&0x112c,r14	
    4c4c:	4e 93       	tst.b	r14		
    4c4e:	0a 24       	jz	$+22     	;abs 0x4c64
    4c50:	5d 53       	inc.b	r13		
    4c52:	c2 4d 30 11 	mov.b	r13,	&0x1130	
    4c56:	6d 92       	cmp.b	#4,	r13	;r2 As==10
    4c58:	02 20       	jnz	$+6      	;abs 0x4c5e
    4c5a:	c2 43 30 11 	mov.b	#0,	&0x1130	;r3 As==00
    4c5e:	7e 53       	add.b	#-1,	r14	;r3 As==11
    4c60:	c2 4e 2c 11 	mov.b	r14,	&0x112c	
    4c64:	30 41       	ret			

00004c66 <__nesc_htonbf_leuint8.constprop.239>:
    4c66:	0b 12       	push	r11		
    4c68:	0a 12       	push	r10		
    4c6a:	09 12       	push	r9		
    4c6c:	08 12       	push	r8		
    4c6e:	07 12       	push	r7		
    4c70:	0c 4f       	mov	r15,	r12	
    4c72:	12 c3       	clrc			
    4c74:	0c 10       	rrc	r12		
    4c76:	12 c3       	clrc			
    4c78:	0c 10       	rrc	r12		
    4c7a:	12 c3       	clrc			
    4c7c:	0c 10       	rrc	r12		
    4c7e:	0b 4f       	mov	r15,	r11	
    4c80:	3b f0 07 00 	and	#7,	r11	;#0x0007
    4c84:	1a 43       	mov	#1,	r10	;r3 As==01
    4c86:	49 4e       	mov.b	r14,	r9	
    4c88:	79 f0 0f 00 	and.b	#15,	r9	;#0x000f
    4c8c:	49 93       	tst.b	r9		
    4c8e:	03 24       	jz	$+8      	;abs 0x4c96
    4c90:	0a 5a       	rla	r10		
    4c92:	79 53       	add.b	#-1,	r9	;r3 As==11
    4c94:	fb 3f       	jmp	$-8      	;abs 0x4c8c
    4c96:	48 4a       	mov.b	r10,	r8	
    4c98:	78 53       	add.b	#-1,	r8	;r3 As==11
    4c9a:	48 fd       	and.b	r13,	r8	
    4c9c:	4e 4e       	mov.b	r14,	r14	
    4c9e:	0f 4e       	mov	r14,	r15	
    4ca0:	0f 5b       	add	r11,	r15	
    4ca2:	3f 90 09 00 	cmp	#9,	r15	;#0x0009
    4ca6:	17 2c       	jc	$+48     	;abs 0x4cd6
    4ca8:	3c 50 88 11 	add	#4488,	r12	;#0x1188
    4cac:	4e 48       	mov.b	r8,	r14	
    4cae:	49 4b       	mov.b	r11,	r9	
    4cb0:	49 93       	tst.b	r9		
    4cb2:	03 24       	jz	$+8      	;abs 0x4cba
    4cb4:	0e 5e       	rla	r14		
    4cb6:	79 53       	add.b	#-1,	r9	;r3 As==11
    4cb8:	fb 3f       	jmp	$-8      	;abs 0x4cb0
    4cba:	3a 53       	add	#-1,	r10	;r3 As==11
    4cbc:	4b 4b       	mov.b	r11,	r11	
    4cbe:	4b 93       	tst.b	r11		
    4cc0:	03 24       	jz	$+8      	;abs 0x4cc8
    4cc2:	0a 5a       	rla	r10		
    4cc4:	7b 53       	add.b	#-1,	r11	;r3 As==11
    4cc6:	fb 3f       	jmp	$-8      	;abs 0x4cbe
    4cc8:	6f 4c       	mov.b	@r12,	r15	
    4cca:	4f ca       	bic.b	r10,	r15	
    4ccc:	4a 4f       	mov.b	r15,	r10	
    4cce:	4a de       	bis.b	r14,	r10	
    4cd0:	cc 4a 00 00 	mov.b	r10,	0(r12)	;0x0000(r12)
    4cd4:	4b 3c       	jmp	$+152    	;abs 0x4d6c
    4cd6:	0b 93       	tst	r11		
    4cd8:	1a 24       	jz	$+54     	;abs 0x4d0e
    4cda:	0f 4c       	mov	r12,	r15	
    4cdc:	3f 50 88 11 	add	#4488,	r15	;#0x1188
    4ce0:	4a 48       	mov.b	r8,	r10	
    4ce2:	49 4b       	mov.b	r11,	r9	
    4ce4:	49 93       	tst.b	r9		
    4ce6:	03 24       	jz	$+8      	;abs 0x4cee
    4ce8:	0a 5a       	rla	r10		
    4cea:	79 53       	add.b	#-1,	r9	;r3 As==11
    4cec:	fb 3f       	jmp	$-8      	;abs 0x4ce4
    4cee:	19 43       	mov	#1,	r9	;r3 As==01
    4cf0:	47 4b       	mov.b	r11,	r7	
    4cf2:	47 93       	tst.b	r7		
    4cf4:	03 24       	jz	$+8      	;abs 0x4cfc
    4cf6:	09 59       	rla	r9		
    4cf8:	77 53       	add.b	#-1,	r7	;r3 As==11
    4cfa:	fb 3f       	jmp	$-8      	;abs 0x4cf2
    4cfc:	39 53       	add	#-1,	r9	;r3 As==11
    4cfe:	69 ff       	and.b	@r15,	r9	
    4d00:	49 da       	bis.b	r10,	r9	
    4d02:	cf 49 00 00 	mov.b	r9,	0(r15)	;0x0000(r15)
    4d06:	3a 42       	mov	#8,	r10	;r2 As==11
    4d08:	0a 8b       	sub	r11,	r10	
    4d0a:	1c 53       	inc	r12		
    4d0c:	0f 3c       	jmp	$+32     	;abs 0x4d2c
    4d0e:	0a 43       	clr	r10		
    4d10:	0d 3c       	jmp	$+28     	;abs 0x4d2c
    4d12:	0b 4f       	mov	r15,	r11	
    4d14:	7a f0 0f 00 	and.b	#15,	r10	;#0x000f
    4d18:	4a 93       	tst.b	r10		
    4d1a:	03 24       	jz	$+8      	;abs 0x4d22
    4d1c:	0b 11       	rra	r11		
    4d1e:	7a 53       	add.b	#-1,	r10	;r3 As==11
    4d20:	fb 3f       	jmp	$-8      	;abs 0x4d18
    4d22:	cc 4b 88 11 	mov.b	r11,	4488(r12);0x1188(r12)
    4d26:	1c 53       	inc	r12		
    4d28:	0a 49       	mov	r9,	r10	
    4d2a:	01 3c       	jmp	$+4      	;abs 0x4d2e
    4d2c:	4f 48       	mov.b	r8,	r15	
    4d2e:	09 4a       	mov	r10,	r9	
    4d30:	39 52       	add	#8,	r9	;r2 As==11
    4d32:	0e 99       	cmp	r9,	r14	
    4d34:	ee 2f       	jc	$-34     	;abs 0x4d12
    4d36:	0a 9e       	cmp	r14,	r10	
    4d38:	19 2c       	jc	$+52     	;abs 0x4d6c
    4d3a:	3c 50 88 11 	add	#4488,	r12	;#0x1188
    4d3e:	1b 43       	mov	#1,	r11	;r3 As==01
    4d40:	4e 8a       	sub.b	r10,	r14	
    4d42:	7e f0 0f 00 	and.b	#15,	r14	;#0x000f
    4d46:	4e 93       	tst.b	r14		
    4d48:	03 24       	jz	$+8      	;abs 0x4d50
    4d4a:	0b 5b       	rla	r11		
    4d4c:	7e 53       	add.b	#-1,	r14	;r3 As==11
    4d4e:	fb 3f       	jmp	$-8      	;abs 0x4d46
    4d50:	3b e3       	inv	r11		
    4d52:	1b 53       	inc	r11		
    4d54:	6b fc       	and.b	@r12,	r11	
    4d56:	4e 48       	mov.b	r8,	r14	
    4d58:	7a f0 0f 00 	and.b	#15,	r10	;#0x000f
    4d5c:	4a 93       	tst.b	r10		
    4d5e:	03 24       	jz	$+8      	;abs 0x4d66
    4d60:	0e 11       	rra	r14		
    4d62:	7a 53       	add.b	#-1,	r10	;r3 As==11
    4d64:	fb 3f       	jmp	$-8      	;abs 0x4d5c
    4d66:	4b de       	bis.b	r14,	r11	
    4d68:	cc 4b 00 00 	mov.b	r11,	0(r12)	;0x0000(r12)
    4d6c:	4f 4d       	mov.b	r13,	r15	
    4d6e:	37 41       	pop	r7		
    4d70:	38 41       	pop	r8		
    4d72:	39 41       	pop	r9		
    4d74:	3a 41       	pop	r10		
    4d76:	3b 41       	pop	r11		
    4d78:	30 41       	ret			

00004d7a <PibP__Frame__setAddressingFields.constprop.241>:
    4d7a:	0b 12       	push	r11		
    4d7c:	0a 12       	push	r10		
    4d7e:	09 12       	push	r9		
    4d80:	08 12       	push	r8		
    4d82:	04 12       	push	r4		
    4d84:	04 41       	mov	r1,	r4	
    4d86:	34 50 0a 00 	add	#10,	r4	;#0x000a
    4d8a:	31 82       	sub	#8,	r1	;r2 As==11
    4d8c:	4a 4d       	mov.b	r13,	r10	
    4d8e:	0d 4c       	mov	r12,	r13	
    4d90:	08 4f       	mov	r15,	r8	
    4d92:	18 53       	inc	r8		
    4d94:	1c 42 ea 11 	mov	&0x11ea,r12	
    4d98:	4b 4e       	mov.b	r14,	r11	
    4d9a:	79 40 06 00 	mov.b	#6,	r9	;#0x0006
    4d9e:	0b 5b       	rla	r11		
    4da0:	79 53       	add.b	#-1,	r9	;r3 As==11
    4da2:	fd 23       	jnz	$-4      	;abs 0x4d9e
    4da4:	59 4f 02 00 	mov.b	2(r15),	r9	;0x0002(r15)
    4da8:	79 f0 33 00 	and.b	#51,	r9	;#0x0033
    4dac:	49 db       	bis.b	r11,	r9	
    4dae:	4b 4a       	mov.b	r10,	r11	
    4db0:	0b 5b       	rla	r11		
    4db2:	0b 5b       	rla	r11		
    4db4:	49 db       	bis.b	r11,	r9	
    4db6:	cf 49 02 00 	mov.b	r9,	2(r15)	;0x0002(r15)
    4dba:	6e 93       	cmp.b	#2,	r14	;r3 As==10
    4dbc:	04 20       	jnz	$+10     	;abs 0x4dc6
    4dbe:	94 42 ec 11 ee ff 	mov	&0x11ec,-18(r4)	;0xffee(r4)
    4dc4:	0c 3c       	jmp	$+26     	;abs 0x4dde
    4dc6:	94 42 9e 13 ee ff 	mov	&0x139e,-18(r4)	;0xffee(r4)
    4dcc:	94 42 a0 13 f0 ff 	mov	&0x13a0,-16(r4)	;0xfff0(r4)
    4dd2:	94 42 a2 13 f2 ff 	mov	&0x13a2,-14(r4)	;0xfff2(r4)
    4dd8:	94 42 a4 13 f4 ff 	mov	&0x13a4,-12(r4)	;0xfff4(r4)
    4dde:	6a 93       	cmp.b	#2,	r10	;r3 As==10
    4de0:	08 28       	jnc	$+18     	;abs 0x4df2
    4de2:	6e 93       	cmp.b	#2,	r14	;r3 As==10
    4de4:	06 28       	jnc	$+14     	;abs 0x4df2
    4de6:	0d 9c       	cmp	r12,	r13	
    4de8:	04 20       	jnz	$+10     	;abs 0x4df2
    4dea:	ff d0 40 00 01 00 	bis.b	#64,	1(r15)	;#0x0040, 0x0001(r15)
    4df0:	03 3c       	jmp	$+8      	;abs 0x4df8
    4df2:	ff f0 bf ff 01 00 	and.b	#-65,	1(r15)	;#0xffbf, 0x0001(r15)
    4df8:	5b 4f 01 00 	mov.b	1(r15),	r11	;0x0001(r15)
    4dfc:	3b f0 40 00 	and	#64,	r11	;#0x0040
    4e00:	5f 43       	mov.b	#1,	r15	;r3 As==01
    4e02:	01 20       	jnz	$+4      	;abs 0x4e06
    4e04:	4f 43       	clr.b	r15		
    4e06:	4f 12       	push.b	r15		
    4e08:	3f 40 ee ff 	mov	#-18,	r15	;#0xffee
    4e0c:	0f 54       	add	r4,	r15	
    4e0e:	0f 12       	push	r15		
    4e10:	0c 12       	push	r12		
    4e12:	4e 12       	push.b	r14		
    4e14:	1c 44 02 00 	mov	2(r4),	r12	;0x0002(r4)
    4e18:	4e 4a       	mov.b	r10,	r14	
    4e1a:	0f 48       	mov	r8,	r15	
    4e1c:	b0 12 48 48 	call	#0x4848	
    4e20:	4f 43       	clr.b	r15		
    4e22:	31 50 10 00 	add	#16,	r1	;#0x0010
    4e26:	34 41       	pop	r4		
    4e28:	38 41       	pop	r8		
    4e2a:	39 41       	pop	r9		
    4e2c:	3a 41       	pop	r10		
    4e2e:	3b 41       	pop	r11		
    4e30:	30 41       	ret			

00004e32 <__nesc_atomic_start>:
    4e32:	0e 42       	mov	r2,	r14	
    4e34:	32 c2       	dint			
    4e36:	03 43       	nop			
    4e38:	03 43       	nop			
    4e3a:	3e f2       	and	#8,	r14	;r2 As==11
    4e3c:	5f 43       	mov.b	#1,	r15	;r3 As==01
    4e3e:	01 20       	jnz	$+4      	;abs 0x4e42
    4e40:	4f 43       	clr.b	r15		
    4e42:	30 41       	ret			

00004e44 <__nesc_atomic_end>:
    4e44:	4f 93       	tst.b	r15		
    4e46:	01 24       	jz	$+4      	;abs 0x4e4a
    4e48:	32 d2       	eint			
    4e4a:	30 41       	ret			

00004e4c <SchedulerBasicP__TaskBasic__postTask>:
    4e4c:	0b 12       	push	r11		
    4e4e:	4b 4f       	mov.b	r15,	r11	
    4e50:	b0 12 32 4e 	call	#0x4e32	
    4e54:	4e 4b       	mov.b	r11,	r14	
    4e56:	fe 93 8a 11 	cmp.b	#-1,	4490(r14);r3 As==11, 0x118a(r14)
    4e5a:	06 20       	jnz	$+14     	;abs 0x4e68
    4e5c:	1e 43       	mov	#1,	r14	;r3 As==01
    4e5e:	c2 9b 92 15 	cmp.b	r11,	&0x1592	
    4e62:	03 24       	jz	$+8      	;abs 0x4e6a
    4e64:	0e 43       	clr	r14		
    4e66:	01 3c       	jmp	$+4      	;abs 0x4e6a
    4e68:	1e 43       	mov	#1,	r14	;r3 As==01
    4e6a:	0e 93       	tst	r14		
    4e6c:	0e 20       	jnz	$+30     	;abs 0x4e8a
    4e6e:	f2 93 6d 15 	cmp.b	#-1,	&0x156d	;r3 As==11
    4e72:	03 20       	jnz	$+8      	;abs 0x4e7a
    4e74:	c2 4b 6d 15 	mov.b	r11,	&0x156d	
    4e78:	04 3c       	jmp	$+10     	;abs 0x4e82
    4e7a:	5e 42 92 15 	mov.b	&0x1592,r14	
    4e7e:	ce 4b 8a 11 	mov.b	r11,	4490(r14);0x118a(r14)
    4e82:	c2 4b 92 15 	mov.b	r11,	&0x1592	
    4e86:	4b 43       	clr.b	r11		
    4e88:	02 3c       	jmp	$+6      	;abs 0x4e8e
    4e8a:	7b 40 05 00 	mov.b	#5,	r11	;#0x0005
    4e8e:	b0 12 44 4e 	call	#0x4e44	
    4e92:	4f 4b       	mov.b	r11,	r15	
    4e94:	3b 41       	pop	r11		
    4e96:	30 41       	ret			

00004e98 <CC2420SpiP__Fifo__continueRead.isra.160>:
    4e98:	4e 4e       	mov.b	r14,	r14	
    4e9a:	c2 43 c2 12 	mov.b	#0,	&0x12c2	;r3 As==00
    4e9e:	82 43 aa 12 	mov	#0,	&0x12aa	;r3 As==00
    4ea2:	82 4f 3e 14 	mov	r15,	&0x143e	
    4ea6:	82 4e 74 15 	mov	r14,	&0x1574	
    4eaa:	82 43 70 15 	mov	#0,	&0x1570	;r3 As==00
    4eae:	0e 93       	tst	r14		
    4eb0:	09 24       	jz	$+20     	;abs 0x4ec4
    4eb2:	f2 f0 bf ff 02 00 	and.b	#-65,	&0x0002	;#0xffbf
    4eb8:	f2 d0 40 00 00 00 	bis.b	#64,	&0x0000	;#0x0040
    4ebe:	b0 12 60 46 	call	#0x4660	
    4ec2:	04 3c       	jmp	$+10     	;abs 0x4ecc
    4ec4:	7f 40 16 00 	mov.b	#22,	r15	;#0x0016
    4ec8:	b0 12 4c 4e 	call	#0x4e4c	
    4ecc:	4f 43       	clr.b	r15		
    4ece:	30 41       	ret			

00004ed0 <CC2420ReceiveP__receive>:
    4ed0:	0b 12       	push	r11		
    4ed2:	b0 12 02 46 	call	#0x4602	
    4ed6:	f2 f0 fb ff 1d 00 	and.b	#-5,	&0x001d	;#0xfffb
    4edc:	1b 42 40 14 	mov	&0x1440,r11	
    4ee0:	c2 93 cd 14 	tst.b	&0x14cd	
    4ee4:	0b 24       	jz	$+24     	;abs 0x4efc
    4ee6:	b2 40 7f 00 c4 12 	mov	#127,	&0x12c4	;#0x007f
    4eec:	7f 40 7f 00 	mov.b	#127,	r15	;#0x007f
    4ef0:	b0 12 92 45 	call	#0x4592	
    4ef4:	5e 43       	mov.b	#1,	r14	;r3 As==01
    4ef6:	0f 4b       	mov	r11,	r15	
    4ef8:	b0 12 98 4e 	call	#0x4e98	
    4efc:	3b 41       	pop	r11		
    4efe:	30 41       	ret			

00004f00 <CC2420TransmitP__TXFIFO__write.part.162>:
    4f00:	0b 12       	push	r11		
    4f02:	0a 12       	push	r10		
    4f04:	09 12       	push	r9		
    4f06:	0a 4f       	mov	r15,	r10	
    4f08:	49 4e       	mov.b	r14,	r9	
    4f0a:	b2 40 3e 00 c4 12 	mov	#62,	&0x12c4	;#0x003e
    4f10:	7f 40 3e 00 	mov.b	#62,	r15	;#0x003e
    4f14:	b0 12 92 45 	call	#0x4592	
    4f18:	4b 4f       	mov.b	r15,	r11	
    4f1a:	4e 49       	mov.b	r9,	r14	
    4f1c:	c2 43 c2 12 	mov.b	#0,	&0x12c2	;r3 As==00
    4f20:	82 4a aa 12 	mov	r10,	&0x12aa	
    4f24:	82 43 3e 14 	mov	#0,	&0x143e	;r3 As==00
    4f28:	82 4e 74 15 	mov	r14,	&0x1574	
    4f2c:	82 43 70 15 	mov	#0,	&0x1570	;r3 As==00
    4f30:	0e 93       	tst	r14		
    4f32:	09 24       	jz	$+20     	;abs 0x4f46
    4f34:	f2 f0 bf ff 02 00 	and.b	#-65,	&0x0002	;#0xffbf
    4f3a:	f2 d0 40 00 00 00 	bis.b	#64,	&0x0000	;#0x0040
    4f40:	b0 12 60 46 	call	#0x4660	
    4f44:	04 3c       	jmp	$+10     	;abs 0x4f4e
    4f46:	7f 40 16 00 	mov.b	#22,	r15	;#0x0016
    4f4a:	b0 12 4c 4e 	call	#0x4e4c	
    4f4e:	4f 4b       	mov.b	r11,	r15	
    4f50:	39 41       	pop	r9		
    4f52:	3a 41       	pop	r10		
    4f54:	3b 41       	pop	r11		
    4f56:	30 41       	ret			

00004f58 <CC2420SpiP__attemptRelease>:
    4f58:	c2 93 26 11 	tst.b	&0x1126	
    4f5c:	38 20       	jnz	$+114    	;abs 0x4fce
    4f5e:	f2 93 07 11 	cmp.b	#-1,	&0x1107	;r3 As==11
    4f62:	35 20       	jnz	$+108    	;abs 0x4fce
    4f64:	c2 93 cd 14 	tst.b	&0x14cd	
    4f68:	32 20       	jnz	$+102    	;abs 0x4fce
    4f6a:	d2 43 24 15 	mov.b	#1,	&0x1524	;r3 As==01
    4f6e:	c2 93 82 11 	tst.b	&0x1182	
    4f72:	02 24       	jz	$+6      	;abs 0x4f78
    4f74:	c2 43 24 15 	mov.b	#0,	&0x1524	;r3 As==00
    4f78:	c2 93 24 15 	tst.b	&0x1524	
    4f7c:	2a 24       	jz	$+86     	;abs 0x4fd2
    4f7e:	f2 90 03 00 24 11 	cmp.b	#3,	&0x1124	;#0x0003
    4f84:	29 20       	jnz	$+84     	;abs 0x4fd8
    4f86:	c2 93 04 11 	tst.b	&0x1104	
    4f8a:	28 20       	jnz	$+82     	;abs 0x4fdc
    4f8c:	5e 42 06 11 	mov.b	&0x1106,r14	
    4f90:	7e 93       	cmp.b	#-1,	r14	;r3 As==11
    4f92:	16 24       	jz	$+46     	;abs 0x4fc0
    4f94:	4f 4e       	mov.b	r14,	r15	
    4f96:	5d 4f ba 11 	mov.b	4538(r15),r13	;0x11ba(r15)
    4f9a:	c2 4d 06 11 	mov.b	r13,	&0x1106	
    4f9e:	7d 93       	cmp.b	#-1,	r13	;r3 As==11
    4fa0:	02 20       	jnz	$+6      	;abs 0x4fa6
    4fa2:	f2 43 05 11 	mov.b	#-1,	&0x1105	;r3 As==11
    4fa6:	ff 43 ba 11 	mov.b	#-1,	4538(r15);r3 As==11, 0x11ba(r15)
    4faa:	c2 4e f9 14 	mov.b	r14,	&0x14f9	
    4fae:	f2 43 04 11 	mov.b	#-1,	&0x1104	;r3 As==11
    4fb2:	d2 43 24 11 	mov.b	#1,	&0x1124	;r3 As==01
    4fb6:	7f 40 17 00 	mov.b	#23,	r15	;#0x0017
    4fba:	b0 12 4c 4e 	call	#0x4e4c	
    4fbe:	04 3c       	jmp	$+10     	;abs 0x4fc8
    4fc0:	d2 43 04 11 	mov.b	#1,	&0x1104	;r3 As==01
    4fc4:	c2 43 24 11 	mov.b	#0,	&0x1124	;r3 As==00
    4fc8:	b0 12 32 4a 	call	#0x4a32	
    4fcc:	05 3c       	jmp	$+12     	;abs 0x4fd8
    4fce:	5f 43       	mov.b	#1,	r15	;r3 As==01
    4fd0:	30 41       	ret			
    4fd2:	7f 40 05 00 	mov.b	#5,	r15	;#0x0005
    4fd6:	30 41       	ret			
    4fd8:	4f 43       	clr.b	r15		
    4fda:	30 41       	ret			
    4fdc:	4f 43       	clr.b	r15		
    4fde:	30 41       	ret			

00004fe0 <ArbiterP__0__ResourceDefaultOwner__release>:
    4fe0:	d2 93 04 11 	cmp.b	#1,	&0x1104	;r3 As==01
    4fe4:	13 20       	jnz	$+40     	;abs 0x500c
    4fe6:	5f 42 24 11 	mov.b	&0x1124,r15	
    4fea:	5f 93       	cmp.b	#1,	r15	;r3 As==01
    4fec:	05 20       	jnz	$+12     	;abs 0x4ff8
    4fee:	7f 40 17 00 	mov.b	#23,	r15	;#0x0017
    4ff2:	b0 12 4c 4e 	call	#0x4e4c	
    4ff6:	08 3c       	jmp	$+18     	;abs 0x5008
    4ff8:	6f 93       	cmp.b	#2,	r15	;r3 As==10
    4ffa:	0a 20       	jnz	$+22     	;abs 0x5010
    4ffc:	d2 42 f9 14 04 11 	mov.b	&0x14f9,&0x1104	
    5002:	f2 40 03 00 24 11 	mov.b	#3,	&0x1124	;#0x0003
    5008:	4f 43       	clr.b	r15		
    500a:	30 41       	ret			
    500c:	5f 43       	mov.b	#1,	r15	;r3 As==01
    500e:	30 41       	ret			
    5010:	5f 43       	mov.b	#1,	r15	;r3 As==01
    5012:	30 41       	ret			

00005014 <CC2420ReceiveP__continueStop>:
    5014:	c2 93 66 13 	tst.b	&0x1366	
    5018:	08 24       	jz	$+18     	;abs 0x502a
    501a:	c2 43 66 13 	mov.b	#0,	&0x1366	;r3 As==00
    501e:	82 43 ac 11 	mov	#0,	&0x11ac	;r3 As==00
    5022:	7f 40 18 00 	mov.b	#24,	r15	;#0x0018
    5026:	b0 12 4c 4e 	call	#0x4e4c	
    502a:	30 41       	ret			

0000502c <DispatchQueueP__0__FrameTx__transmit>:
    502c:	ce 4f 08 00 	mov.b	r15,	8(r14)	;0x0008(r14)
    5030:	5f 42 d5 14 	mov.b	&0x14d5,r15	
    5034:	2f f3       	and	#2,	r15	;r3 As==10
    5036:	1a 20       	jnz	$+54     	;abs 0x506c
    5038:	5d 42 2c 11 	mov.b	&0x112c,r13	
    503c:	6d 92       	cmp.b	#4,	r13	;r2 As==10
    503e:	19 2c       	jc	$+52     	;abs 0x5072
    5040:	5c 42 2e 11 	mov.b	&0x112e,r12	
    5044:	4f 4c       	mov.b	r12,	r15	
    5046:	0f 5f       	rla	r15		
    5048:	8f 4e 26 15 	mov	r14,	5414(r15);0x1526(r15)
    504c:	4f 4c       	mov.b	r12,	r15	
    504e:	5f 53       	inc.b	r15		
    5050:	c2 4f 2e 11 	mov.b	r15,	&0x112e	
    5054:	6f 92       	cmp.b	#4,	r15	;r2 As==10
    5056:	02 20       	jnz	$+6      	;abs 0x505c
    5058:	c2 43 2e 11 	mov.b	#0,	&0x112e	;r3 As==00
    505c:	5d 53       	inc.b	r13		
    505e:	c2 4d 2c 11 	mov.b	r13,	&0x112c	
    5062:	7f 42       	mov.b	#8,	r15	;r2 As==11
    5064:	b0 12 4c 4e 	call	#0x4e4c	
    5068:	0f 43       	clr	r15		
    506a:	30 41       	ret			
    506c:	3f 40 f1 00 	mov	#241,	r15	;#0x00f1
    5070:	30 41       	ret			
    5072:	3f 40 f1 00 	mov	#241,	r15	;#0x00f1
    5076:	30 41       	ret			

00005078 <ScanP__RadioOff__offDone>:
    5078:	5f 42 c0 14 	mov.b	&0x14c0,r15	
    507c:	4f 93       	tst.b	r15		
    507e:	03 20       	jnz	$+8      	;abs 0x5086
    5080:	7f 40 0c 00 	mov.b	#12,	r15	;#0x000c
    5084:	05 3c       	jmp	$+12     	;abs 0x5090
    5086:	5f 53       	inc.b	r15		
    5088:	c2 4f c0 14 	mov.b	r15,	&0x14c0	
    508c:	7f 40 0b 00 	mov.b	#11,	r15	;#0x000b
    5090:	b0 12 4c 4e 	call	#0x4e4c	
    5094:	30 41       	ret			

00005096 <CC2420ControlP__SpiResource__isOwner>:
    5096:	0b 12       	push	r11		
    5098:	b0 12 32 4e 	call	#0x4e32	
    509c:	5b 43       	mov.b	#1,	r11	;r3 As==01
    509e:	c2 93 07 11 	tst.b	&0x1107	
    50a2:	01 24       	jz	$+4      	;abs 0x50a6
    50a4:	4b 43       	clr.b	r11		
    50a6:	b0 12 44 4e 	call	#0x4e44	
    50aa:	4f 4b       	mov.b	r11,	r15	
    50ac:	3b 41       	pop	r11		
    50ae:	30 41       	ret			

000050b0 <CC2420TKN154P__RxControl__stop>:
    50b0:	0b 12       	push	r11		
    50b2:	b0 12 32 4e 	call	#0x4e32	
    50b6:	4b 4f       	mov.b	r15,	r11	
    50b8:	82 93 ac 11 	tst	&0x11ac	
    50bc:	05 20       	jnz	$+12     	;abs 0x50c8
    50be:	b0 12 44 4e 	call	#0x4e44	
    50c2:	7f 40 09 00 	mov.b	#9,	r15	;#0x0009
    50c6:	11 3c       	jmp	$+36     	;abs 0x50ea
    50c8:	d2 43 66 13 	mov.b	#1,	&0x1366	;r3 As==01
    50cc:	f2 f0 fe ff 25 00 	and.b	#-2,	&0x0025	;#0xfffe
    50d2:	f2 f0 fe ff 23 00 	and.b	#-2,	&0x0023	;#0xfffe
    50d8:	c2 93 c0 11 	tst.b	&0x11c0	
    50dc:	02 20       	jnz	$+6      	;abs 0x50e2
    50de:	b0 12 14 50 	call	#0x5014	
    50e2:	4f 4b       	mov.b	r11,	r15	
    50e4:	b0 12 44 4e 	call	#0x4e44	
    50e8:	4f 43       	clr.b	r15		
    50ea:	3b 41       	pop	r11		
    50ec:	30 41       	ret			

000050ee <CC2420TKN154P__CC2420Power__rfOff>:
    50ee:	0b 12       	push	r11		
    50f0:	b0 12 32 4e 	call	#0x4e32	
    50f4:	4b 4f       	mov.b	r15,	r11	
    50f6:	b0 12 96 50 	call	#0x5096	
    50fa:	4f 93       	tst.b	r15		
    50fc:	05 20       	jnz	$+12     	;abs 0x5108
    50fe:	4f 4b       	mov.b	r11,	r15	
    5100:	b0 12 44 4e 	call	#0x4e44	
    5104:	5f 43       	mov.b	#1,	r15	;r3 As==01
    5106:	0e 3c       	jmp	$+30     	;abs 0x5124
    5108:	b0 12 ba 45 	call	#0x45ba	
    510c:	b0 12 c0 45 	call	#0x45c0	
    5110:	7f 40 06 00 	mov.b	#6,	r15	;#0x0006
    5114:	b0 12 50 46 	call	#0x4650	
    5118:	b0 12 ba 45 	call	#0x45ba	
    511c:	4f 4b       	mov.b	r11,	r15	
    511e:	b0 12 44 4e 	call	#0x4e44	
    5122:	4f 43       	clr.b	r15		
    5124:	3b 41       	pop	r11		
    5126:	30 41       	ret			

00005128 <CC2420TKN154P__CC2420Power__flushRxFifo>:
    5128:	0b 12       	push	r11		
    512a:	b0 12 32 4e 	call	#0x4e32	
    512e:	4b 4f       	mov.b	r15,	r11	
    5130:	b0 12 96 50 	call	#0x5096	
    5134:	4f 93       	tst.b	r15		
    5136:	05 20       	jnz	$+12     	;abs 0x5142
    5138:	4f 4b       	mov.b	r11,	r15	
    513a:	b0 12 44 4e 	call	#0x4e44	
    513e:	5f 43       	mov.b	#1,	r15	;r3 As==01
    5140:	22 3c       	jmp	$+70     	;abs 0x5186
    5142:	f2 b2 20 00 	bit.b	#8,	&0x0020	;r2 As==11
    5146:	1b 24       	jz	$+56     	;abs 0x517e
    5148:	b0 12 c0 45 	call	#0x45c0	
    514c:	c2 93 cd 14 	tst.b	&0x14cd	
    5150:	0a 24       	jz	$+22     	;abs 0x5166
    5152:	7f 40 7f 00 	mov.b	#127,	r15	;#0x007f
    5156:	b0 12 92 45 	call	#0x4592	
    515a:	4f 43       	clr.b	r15		
    515c:	b0 12 92 45 	call	#0x4592	
    5160:	4f 43       	clr.b	r15		
    5162:	b0 12 92 45 	call	#0x4592	
    5166:	b0 12 ba 45 	call	#0x45ba	
    516a:	b0 12 c0 45 	call	#0x45c0	
    516e:	7f 42       	mov.b	#8,	r15	;r2 As==11
    5170:	b0 12 50 46 	call	#0x4650	
    5174:	7f 42       	mov.b	#8,	r15	;r2 As==11
    5176:	b0 12 50 46 	call	#0x4650	
    517a:	b0 12 ba 45 	call	#0x45ba	
    517e:	4f 4b       	mov.b	r11,	r15	
    5180:	b0 12 44 4e 	call	#0x4e44	
    5184:	4f 43       	clr.b	r15		
    5186:	3b 41       	pop	r11		
    5188:	30 41       	ret			

0000518a <CC2420TKN154P__TxControl__stop>:
    518a:	21 83       	decd	r1		
    518c:	b0 12 32 4e 	call	#0x4e32	
    5190:	82 43 22 11 	mov	#0,	&0x1122	;r3 As==00
    5194:	b2 f0 ef ff 86 01 	and	#-17,	&0x0186	;#0xffef
    519a:	b2 f0 ef ff 84 01 	and	#-17,	&0x0184	;#0xffef
    51a0:	f2 f0 fd ff 1f 00 	and.b	#-3,	&0x001f	;#0xfffd
    51a6:	81 4f 00 00 	mov	r15,	0(r1)	;0x0000(r1)
    51aa:	b0 12 b4 45 	call	#0x45b4	
    51ae:	2f 41       	mov	@r1,	r15	
    51b0:	b0 12 44 4e 	call	#0x4e44	
    51b4:	4f 43       	clr.b	r15		
    51b6:	21 53       	incd	r1		
    51b8:	30 41       	ret			

000051ba <CC2420SpiP__Resource__release>:
    51ba:	0b 12       	push	r11		
    51bc:	0a 12       	push	r10		
    51be:	09 12       	push	r9		
    51c0:	4b 4f       	mov.b	r15,	r11	
    51c2:	b0 12 32 4e 	call	#0x4e32	
    51c6:	49 4f       	mov.b	r15,	r9	
    51c8:	c2 9b 07 11 	cmp.b	r11,	&0x1107	
    51cc:	04 24       	jz	$+10     	;abs 0x51d6
    51ce:	b0 12 44 4e 	call	#0x4e44	
    51d2:	5f 43       	mov.b	#1,	r15	;r3 As==01
    51d4:	30 3c       	jmp	$+98     	;abs 0x5236
    51d6:	f2 43 07 11 	mov.b	#-1,	&0x1107	;r3 As==11
    51da:	5b 42 26 11 	mov.b	&0x1126,r11	
    51de:	4b 93       	tst.b	r11		
    51e0:	05 20       	jnz	$+12     	;abs 0x51ec
    51e2:	c2 43 cd 14 	mov.b	#0,	&0x14cd	;r3 As==00
    51e6:	b0 12 58 4f 	call	#0x4f58	
    51ea:	1d 3c       	jmp	$+60     	;abs 0x5226
    51ec:	4a 43       	clr.b	r10		
    51ee:	4f 4b       	mov.b	r11,	r15	
    51f0:	4c 4a       	mov.b	r10,	r12	
    51f2:	5c f3       	and.b	#1,	r12	;r3 As==01
    51f4:	4d 4c       	mov.b	r12,	r13	
    51f6:	0e 4f       	mov	r15,	r14	
    51f8:	4a 4c       	mov.b	r12,	r10	
    51fa:	03 24       	jz	$+8      	;abs 0x5202
    51fc:	0e 11       	rra	r14		
    51fe:	7a 53       	add.b	#-1,	r10	;r3 As==11
    5200:	fd 23       	jnz	$-4      	;abs 0x51fc
    5202:	1e f3       	and	#1,	r14	;r3 As==01
    5204:	15 24       	jz	$+44     	;abs 0x5230
    5206:	c2 4c 07 11 	mov.b	r12,	&0x1107	
    520a:	1e 43       	mov	#1,	r14	;r3 As==01
    520c:	4d 4d       	mov.b	r13,	r13	
    520e:	4d 93       	tst.b	r13		
    5210:	03 24       	jz	$+8      	;abs 0x5218
    5212:	0e 5e       	rla	r14		
    5214:	7d 53       	add.b	#-1,	r13	;r3 As==11
    5216:	fb 3f       	jmp	$-8      	;abs 0x520e
    5218:	4b ce       	bic.b	r14,	r11	
    521a:	c2 4b 26 11 	mov.b	r11,	&0x1126	
    521e:	7f 40 15 00 	mov.b	#21,	r15	;#0x0015
    5222:	b0 12 4c 4e 	call	#0x4e4c	
    5226:	4f 49       	mov.b	r9,	r15	
    5228:	b0 12 44 4e 	call	#0x4e44	
    522c:	4f 43       	clr.b	r15		
    522e:	03 3c       	jmp	$+8      	;abs 0x5236
    5230:	4a 4c       	mov.b	r12,	r10	
    5232:	5a 53       	inc.b	r10		
    5234:	dd 3f       	jmp	$-68     	;abs 0x51f0
    5236:	39 41       	pop	r9		
    5238:	3a 41       	pop	r10		
    523a:	3b 41       	pop	r11		
    523c:	30 41       	ret			

0000523e <CC2420TKN154P__SpiResource__release>:
    523e:	0b 12       	push	r11		
    5240:	0a 12       	push	r10		
    5242:	b0 12 32 4e 	call	#0x4e32	
    5246:	4a 4f       	mov.b	r15,	r10	
    5248:	4f 43       	clr.b	r15		
    524a:	b0 12 ba 51 	call	#0x51ba	
    524e:	4b 4f       	mov.b	r15,	r11	
    5250:	4f 4a       	mov.b	r10,	r15	
    5252:	b0 12 44 4e 	call	#0x4e44	
    5256:	4f 4b       	mov.b	r11,	r15	
    5258:	3a 41       	pop	r10		
    525a:	3b 41       	pop	r11		
    525c:	30 41       	ret			

0000525e <RadioControlImplP__ArbiterInfo__userId>:
    525e:	0b 12       	push	r11		
    5260:	b0 12 32 4e 	call	#0x4e32	
    5264:	e2 93 3a 11 	cmp.b	#2,	&0x113a	;r3 As==10
    5268:	04 24       	jz	$+10     	;abs 0x5272
    526a:	b0 12 44 4e 	call	#0x4e44	
    526e:	7b 43       	mov.b	#-1,	r11	;r3 As==11
    5270:	04 3c       	jmp	$+10     	;abs 0x527a
    5272:	5b 42 09 11 	mov.b	&0x1109,r11	
    5276:	b0 12 44 4e 	call	#0x4e44	
    527a:	4f 4b       	mov.b	r11,	r15	
    527c:	3b 41       	pop	r11		
    527e:	30 41       	ret			

00005280 <DispatchUnslottedCsmaP__RadioOff__isOff>:
    5280:	b0 12 5e 52 	call	#0x525e	
    5284:	7f 90 0c 00 	cmp.b	#12,	r15	;#0x000c
    5288:	06 20       	jnz	$+14     	;abs 0x5296
    528a:	5f 43       	mov.b	#1,	r15	;r3 As==01
    528c:	a2 92 2a 11 	cmp	#4,	&0x112a	;r2 As==10
    5290:	04 24       	jz	$+10     	;abs 0x529a
    5292:	4f 43       	clr.b	r15		
    5294:	30 41       	ret			
    5296:	7f 40 05 00 	mov.b	#5,	r15	;#0x0005
    529a:	30 41       	ret			

0000529c <CC2420TKN154P__RxControl__start>:
    529c:	b0 12 32 4e 	call	#0x4e32	
    52a0:	4d 4f       	mov.b	r15,	r13	
    52a2:	f2 b2 20 00 	bit.b	#8,	&0x0020	;r2 As==11
    52a6:	07 20       	jnz	$+16     	;abs 0x52b6
    52a8:	d2 b3 20 00 	bit.b	#1,	&0x0020	;r3 As==01
    52ac:	04 20       	jnz	$+10     	;abs 0x52b6
    52ae:	b0 12 44 4e 	call	#0x4e44	
    52b2:	5f 43       	mov.b	#1,	r15	;r3 As==01
    52b4:	30 41       	ret			
    52b6:	f2 40 80 ff 7b 11 	mov.b	#-128,	&0x117b	;#0xff80
    52bc:	c2 43 c0 11 	mov.b	#0,	&0x11c0	;r3 As==00
    52c0:	c2 43 73 15 	mov.b	#0,	&0x1573	;r3 As==00
    52c4:	c2 43 6c 15 	mov.b	#0,	&0x156c	;r3 As==00
    52c8:	c2 43 b5 11 	mov.b	#0,	&0x11b5	;r3 As==00
    52cc:	a2 43 ac 11 	mov	#2,	&0x11ac	;r3 As==10
    52d0:	f2 f0 fe ff 25 00 	and.b	#-2,	&0x0025	;#0xfffe
    52d6:	f2 f0 fe ff 23 00 	and.b	#-2,	&0x0023	;#0xfffe
    52dc:	d2 d3 24 00 	bis.b	#1,	&0x0024	;r3 As==01
    52e0:	d2 d3 25 00 	bis.b	#1,	&0x0025	;r3 As==01
    52e4:	4f 4d       	mov.b	r13,	r15	
    52e6:	b0 12 44 4e 	call	#0x4e44	
    52ea:	4f 43       	clr.b	r15		
    52ec:	30 41       	ret			

000052ee <CC2420TKN154P__checkEnableRxForACK>:
    52ee:	1f 42 ca 14 	mov	&0x14ca,r15	
    52f2:	2f 4f       	mov	@r15,	r15	
    52f4:	5f 4f 01 00 	mov.b	1(r15),	r15	;0x0001(r15)
    52f8:	3f f0 20 00 	and	#32,	r15	;#0x0020
    52fc:	04 24       	jz	$+10     	;abs 0x5306
    52fe:	b0 12 3e 52 	call	#0x523e	
    5302:	b0 12 9c 52 	call	#0x529c	
    5306:	30 41       	ret			

00005308 <CC2420TKN154P__CC2420Config__sync>:
    5308:	0b 12       	push	r11		
    530a:	b0 12 32 4e 	call	#0x4e32	
    530e:	4b 4f       	mov.b	r15,	r11	
    5310:	b0 12 96 50 	call	#0x5096	
    5314:	4f 93       	tst.b	r15		
    5316:	05 20       	jnz	$+12     	;abs 0x5322
    5318:	4f 4b       	mov.b	r11,	r15	
    531a:	b0 12 44 4e 	call	#0x4e44	
    531e:	5f 43       	mov.b	#1,	r15	;r3 As==01
    5320:	29 3c       	jmp	$+84     	;abs 0x5374
    5322:	c2 93 f2 14 	tst.b	&0x14f2	
    5326:	22 24       	jz	$+70     	;abs 0x536c
    5328:	b0 12 ba 45 	call	#0x45ba	
    532c:	b0 12 c0 45 	call	#0x45c0	
    5330:	7f 40 06 00 	mov.b	#6,	r15	;#0x0006
    5334:	b0 12 50 46 	call	#0x4650	
    5338:	b0 12 ba 45 	call	#0x45ba	
    533c:	b0 12 c0 45 	call	#0x45c0	
    5340:	b0 12 80 4a 	call	#0x4a80	
    5344:	b0 12 a0 4a 	call	#0x4aa0	
    5348:	5e 42 9e 12 	mov.b	&0x129e,r14	
    534c:	3e d0 e0 80 	bis	#-32544,r14	;#0x80e0
    5350:	7f 40 15 00 	mov.b	#21,	r15	;#0x0015
    5354:	b0 12 5c 4a 	call	#0x4a5c	
    5358:	b0 12 ba 45 	call	#0x45ba	
    535c:	b0 12 c0 45 	call	#0x45c0	
    5360:	b0 12 2a 4b 	call	#0x4b2a	
    5364:	b0 12 ba 45 	call	#0x45ba	
    5368:	c2 43 f2 14 	mov.b	#0,	&0x14f2	;r3 As==00
    536c:	4f 4b       	mov.b	r11,	r15	
    536e:	b0 12 44 4e 	call	#0x4e44	
    5372:	4f 43       	clr.b	r15		
    5374:	3b 41       	pop	r11		
    5376:	30 41       	ret			

00005378 <CC2420TKN154P__TxControl__start>:
    5378:	0b 12       	push	r11		
    537a:	b0 12 32 4e 	call	#0x4e32	
    537e:	4b 4f       	mov.b	r15,	r11	
    5380:	92 93 22 11 	cmp	#1,	&0x1122	;r3 As==01
    5384:	05 20       	jnz	$+12     	;abs 0x5390
    5386:	b0 12 44 4e 	call	#0x4e44	
    538a:	7f 40 09 00 	mov.b	#9,	r15	;#0x0009
    538e:	0b 3c       	jmp	$+24     	;abs 0x53a6
    5390:	5f 43       	mov.b	#1,	r15	;r3 As==01
    5392:	b0 12 1a 46 	call	#0x461a	
    5396:	92 43 22 11 	mov	#1,	&0x1122	;r3 As==01
    539a:	c2 43 20 11 	mov.b	#0,	&0x1120	;r3 As==00
    539e:	4f 4b       	mov.b	r11,	r15	
    53a0:	b0 12 44 4e 	call	#0x4e44	
    53a4:	4f 43       	clr.b	r15		
    53a6:	3b 41       	pop	r11		
    53a8:	30 41       	ret			

000053aa <TransformCounterC__1__Counter__get>:
    53aa:	0b 12       	push	r11		
    53ac:	0a 12       	push	r10		
    53ae:	09 12       	push	r9		
    53b0:	b0 12 32 4e 	call	#0x4e32	
    53b4:	49 4f       	mov.b	r15,	r9	
    53b6:	1b 42 a8 12 	mov	&0x12a8,r11	
    53ba:	b0 12 08 46 	call	#0x4608	
    53be:	0a 4f       	mov	r15,	r10	
    53c0:	1f 42 80 01 	mov	&0x0180,r15	
    53c4:	5f f3       	and.b	#1,	r15	;r3 As==01
    53c6:	04 24       	jz	$+10     	;abs 0x53d0
    53c8:	1b 53       	inc	r11		
    53ca:	b0 12 08 46 	call	#0x4608	
    53ce:	0a 4f       	mov	r15,	r10	
    53d0:	0c 43       	clr	r12		
    53d2:	0d 43       	clr	r13		
    53d4:	0d 4b       	mov	r11,	r13	
    53d6:	0e 4a       	mov	r10,	r14	
    53d8:	0f 43       	clr	r15		
    53da:	0a 4c       	mov	r12,	r10	
    53dc:	0b 4d       	mov	r13,	r11	
    53de:	0a de       	bis	r14,	r10	
    53e0:	0b df       	bis	r15,	r11	
    53e2:	4f 49       	mov.b	r9,	r15	
    53e4:	b0 12 44 4e 	call	#0x4e44	
    53e8:	0e 4a       	mov	r10,	r14	
    53ea:	0f 4b       	mov	r11,	r15	
    53ec:	39 41       	pop	r9		
    53ee:	3a 41       	pop	r10		
    53f0:	3b 41       	pop	r11		
    53f2:	30 41       	ret			

000053f4 <Alarm32khzTo62500hzTransformC__Alarm__getNow>:
    53f4:	5f 93       	cmp.b	#1,	r15	;r3 As==01
    53f6:	03 24       	jz	$+8      	;abs 0x53fe
    53f8:	02 28       	jnc	$+6      	;abs 0x53fe
    53fa:	6f 93       	cmp.b	#2,	r15	;r3 As==10
    53fc:	03 20       	jnz	$+8      	;abs 0x5404
    53fe:	b0 12 aa 53 	call	#0x53aa	
    5402:	02 3c       	jmp	$+6      	;abs 0x5408
    5404:	0e 43       	clr	r14		
    5406:	0f 43       	clr	r15		
    5408:	0e 5e       	rla	r14		
    540a:	0f 6f       	rlc	r15		
    540c:	30 41       	ret			

0000540e <VirtualizeTimerC__1__Timer__startOneShot>:
    540e:	0b 12       	push	r11		
    5410:	09 12       	push	r9		
    5412:	08 12       	push	r8		
    5414:	4b 4f       	mov.b	r15,	r11	
    5416:	08 4d       	mov	r13,	r8	
    5418:	09 4e       	mov	r14,	r9	
    541a:	6f 43       	mov.b	#2,	r15	;r3 As==10
    541c:	b0 12 f4 53 	call	#0x53f4	
    5420:	4b 4b       	mov.b	r11,	r11	
    5422:	0b 5b       	rla	r11		
    5424:	0c 4b       	mov	r11,	r12	
    5426:	0c 5c       	rla	r12		
    5428:	0c 5c       	rla	r12		
    542a:	0c 5b       	add	r11,	r12	
    542c:	3c 50 d4 13 	add	#5076,	r12	;#0x13d4
    5430:	8c 4e 00 00 	mov	r14,	0(r12)	;0x0000(r12)
    5434:	8c 4f 02 00 	mov	r15,	2(r12)	;0x0002(r12)
    5438:	8c 48 04 00 	mov	r8,	4(r12)	;0x0004(r12)
    543c:	8c 49 06 00 	mov	r9,	6(r12)	;0x0006(r12)
    5440:	fc d0 03 00 08 00 	bis.b	#3,	8(r12)	;#0x0003, 0x0008(r12)
    5446:	7f 40 1b 00 	mov.b	#27,	r15	;#0x001b
    544a:	b0 12 4c 4e 	call	#0x4e4c	
    544e:	38 41       	pop	r8		
    5450:	39 41       	pop	r9		
    5452:	3b 41       	pop	r11		
    5454:	30 41       	ret			

00005456 <TransformAlarmC__2__set_alarm>:
    5456:	0b 12       	push	r11		
    5458:	0a 12       	push	r10		
    545a:	09 12       	push	r9		
    545c:	08 12       	push	r8		
    545e:	b0 12 aa 53 	call	#0x53aa	
    5462:	08 4e       	mov	r14,	r8	
    5464:	09 4f       	mov	r15,	r9	
    5466:	1e 42 f4 14 	mov	&0x14f4,r14	
    546a:	1f 42 f6 14 	mov	&0x14f6,r15	
    546e:	0a 4e       	mov	r14,	r10	
    5470:	0b 4f       	mov	r15,	r11	
    5472:	1a 52 c2 11 	add	&0x11c2,r10	
    5476:	1b 62 c4 11 	addc	&0x11c4,r11	
    547a:	09 9f       	cmp	r15,	r9	
    547c:	09 28       	jnc	$+20     	;abs 0x5490
    547e:	02 20       	jnz	$+6      	;abs 0x5484
    5480:	08 9e       	cmp	r14,	r8	
    5482:	06 28       	jnc	$+14     	;abs 0x5490
    5484:	0b 9f       	cmp	r15,	r11	
    5486:	10 28       	jnc	$+34     	;abs 0x54a8
    5488:	09 20       	jnz	$+20     	;abs 0x549c
    548a:	0a 9e       	cmp	r14,	r10	
    548c:	0d 28       	jnc	$+28     	;abs 0x54a8
    548e:	06 3c       	jmp	$+14     	;abs 0x549c
    5490:	0b 9f       	cmp	r15,	r11	
    5492:	04 28       	jnc	$+10     	;abs 0x549c
    5494:	0f 9b       	cmp	r11,	r15	
    5496:	27 28       	jnc	$+80     	;abs 0x54e6
    5498:	0a 9e       	cmp	r14,	r10	
    549a:	25 2c       	jc	$+76     	;abs 0x54e6
    549c:	09 9b       	cmp	r11,	r9	
    549e:	04 28       	jnc	$+10     	;abs 0x54a8
    54a0:	0b 99       	cmp	r9,	r11	
    54a2:	21 28       	jnc	$+68     	;abs 0x54e6
    54a4:	08 9a       	cmp	r10,	r8	
    54a6:	1f 2c       	jc	$+64     	;abs 0x54e6
    54a8:	0c 4a       	mov	r10,	r12	
    54aa:	0d 4b       	mov	r11,	r13	
    54ac:	0c 88       	sub	r8,	r12	
    54ae:	0d 79       	subc	r9,	r13	
    54b0:	0d 93       	tst	r13		
    54b2:	03 20       	jnz	$+8      	;abs 0x54ba
    54b4:	3c 90 01 80 	cmp	#-32767,r12	;#0x8001
    54b8:	18 28       	jnc	$+50     	;abs 0x54ea
    54ba:	0e 48       	mov	r8,	r14	
    54bc:	0f 49       	mov	r9,	r15	
    54be:	3e 50 00 80 	add	#-32768,r14	;#0x8000
    54c2:	0f 63       	adc	r15		
    54c4:	82 4e f4 14 	mov	r14,	&0x14f4	
    54c8:	82 4f f6 14 	mov	r15,	&0x14f6	
    54cc:	0e 4c       	mov	r12,	r14	
    54ce:	0f 4d       	mov	r13,	r15	
    54d0:	3e 50 00 80 	add	#-32768,r14	;#0x8000
    54d4:	3f 63       	addc	#-1,	r15	;r3 As==11
    54d6:	82 4e c2 11 	mov	r14,	&0x11c2	
    54da:	82 4f c4 11 	mov	r15,	&0x11c4	
    54de:	3c 40 00 80 	mov	#-32768,r12	;#0x8000
    54e2:	0d 43       	clr	r13		
    54e4:	0a 3c       	jmp	$+22     	;abs 0x54fa
    54e6:	0c 43       	clr	r12		
    54e8:	0d 43       	clr	r13		
    54ea:	82 4a f4 14 	mov	r10,	&0x14f4	
    54ee:	82 4b f6 14 	mov	r11,	&0x14f6	
    54f2:	82 43 c2 11 	mov	#0,	&0x11c2	;r3 As==00
    54f6:	82 43 c4 11 	mov	#0,	&0x11c4	;r3 As==00
    54fa:	0a 4c       	mov	r12,	r10	
    54fc:	b0 12 08 46 	call	#0x4608	
    5500:	0e 4f       	mov	r15,	r14	
    5502:	0e 88       	sub	r8,	r14	
    5504:	0e 9a       	cmp	r10,	r14	
    5506:	05 2c       	jc	$+12     	;abs 0x5512
    5508:	0c 4a       	mov	r10,	r12	
    550a:	0c 8e       	sub	r14,	r12	
    550c:	3c 90 03 00 	cmp	#3,	r12	;#0x0003
    5510:	06 2c       	jc	$+14     	;abs 0x551e
    5512:	b0 12 08 46 	call	#0x4608	
    5516:	2f 53       	incd	r15		
    5518:	82 4f 98 01 	mov	r15,	&0x0198	
    551c:	03 3c       	jmp	$+8      	;abs 0x5524
    551e:	0c 5f       	add	r15,	r12	
    5520:	82 4c 98 01 	mov	r12,	&0x0198	
    5524:	b2 f0 fe ff 88 01 	and	#-2,	&0x0188	;#0xfffe
    552a:	b2 d0 10 00 88 01 	bis	#16,	&0x0188	;#0x0010
    5530:	38 41       	pop	r8		
    5532:	39 41       	pop	r9		
    5534:	3a 41       	pop	r10		
    5536:	3b 41       	pop	r11		
    5538:	30 41       	ret			

0000553a <VirtualizeAlarmC__0__setNextAlarm.part.174>:
    553a:	0b 12       	push	r11		
    553c:	0a 12       	push	r10		
    553e:	09 12       	push	r9		
    5540:	08 12       	push	r8		
    5542:	07 12       	push	r7		
    5544:	06 12       	push	r6		
    5546:	05 12       	push	r5		
    5548:	04 12       	push	r4		
    554a:	31 50 fa ff 	add	#-6,	r1	;#0xfffa
    554e:	b0 12 aa 53 	call	#0x53aa	
    5552:	04 4e       	mov	r14,	r4	
    5554:	05 4f       	mov	r15,	r5	
    5556:	3e 40 da 14 	mov	#5338,	r14	;#0x14da
    555a:	c1 43 04 00 	mov.b	#0,	4(r1)	;r3 As==00, 0x0004(r1)
    555e:	36 43       	mov	#-1,	r6	;r3 As==11
    5560:	37 43       	mov	#-1,	r7	;r3 As==11
    5562:	3f 40 d6 14 	mov	#5334,	r15	;#0x14d6
    5566:	0d 4f       	mov	r15,	r13	
    5568:	3d 50 18 00 	add	#24,	r13	;#0x0018
    556c:	81 44 00 00 	mov	r4,	0(r1)	;0x0000(r1)
    5570:	81 45 02 00 	mov	r5,	2(r1)	;0x0002(r1)
    5574:	05 4f       	mov	r15,	r5	
    5576:	04 4d       	mov	r13,	r4	
    5578:	c4 93 00 00 	tst.b	0(r4)		;0x0000(r4)
    557c:	36 24       	jz	$+110    	;abs 0x55ea
    557e:	28 45       	mov	@r5,	r8	
    5580:	19 45 02 00 	mov	2(r5),	r9	;0x0002(r5)
    5584:	2a 41       	mov	@r1,	r10	
    5586:	1b 41 02 00 	mov	2(r1),	r11	;0x0002(r1)
    558a:	0a 88       	sub	r8,	r10	
    558c:	0b 79       	subc	r9,	r11	
    558e:	2c 4e       	mov	@r14,	r12	
    5590:	1d 4e 02 00 	mov	2(r14),	r13	;0x0002(r14)
    5594:	0b 9d       	cmp	r13,	r11	
    5596:	10 28       	jnc	$+34     	;abs 0x55b8
    5598:	02 20       	jnz	$+6      	;abs 0x559e
    559a:	0a 9c       	cmp	r12,	r10	
    559c:	0d 28       	jnc	$+28     	;abs 0x55b8
    559e:	0a 4c       	mov	r12,	r10	
    55a0:	0b 4d       	mov	r13,	r11	
    55a2:	0a 58       	add	r8,	r10	
    55a4:	0b 69       	addc	r9,	r11	
    55a6:	85 4a 00 00 	mov	r10,	0(r5)	;0x0000(r5)
    55aa:	85 4b 02 00 	mov	r11,	2(r5)	;0x0002(r5)
    55ae:	8e 43 00 00 	mov	#0,	0(r14)	;r3 As==00, 0x0000(r14)
    55b2:	8e 43 02 00 	mov	#0,	2(r14)	;r3 As==00, 0x0002(r14)
    55b6:	0d 3c       	jmp	$+28     	;abs 0x55d2
    55b8:	a5 41 00 00 	mov	@r1,	0(r5)	;0x0000(r5)
    55bc:	95 41 02 00 02 00 	mov	2(r1),	2(r5)	;0x0002(r1), 0x0002(r5)
    55c2:	08 4c       	mov	r12,	r8	
    55c4:	09 4d       	mov	r13,	r9	
    55c6:	08 8a       	sub	r10,	r8	
    55c8:	09 7b       	subc	r11,	r9	
    55ca:	8e 48 00 00 	mov	r8,	0(r14)	;0x0000(r14)
    55ce:	8e 49 02 00 	mov	r9,	2(r14)	;0x0002(r14)
    55d2:	2d 4e       	mov	@r14,	r13	
    55d4:	1f 4e 02 00 	mov	2(r14),	r15	;0x0002(r14)
    55d8:	07 9f       	cmp	r15,	r7	
    55da:	07 28       	jnc	$+16     	;abs 0x55ea
    55dc:	02 20       	jnz	$+6      	;abs 0x55e2
    55de:	06 9d       	cmp	r13,	r6	
    55e0:	04 28       	jnc	$+10     	;abs 0x55ea
    55e2:	06 4d       	mov	r13,	r6	
    55e4:	07 4f       	mov	r15,	r7	
    55e6:	d1 43 04 00 	mov.b	#1,	4(r1)	;r3 As==01, 0x0004(r1)
    55ea:	35 52       	add	#8,	r5	;r2 As==11
    55ec:	14 53       	inc	r4		
    55ee:	3e 52       	add	#8,	r14	;r2 As==11
    55f0:	35 90 ee 14 	cmp	#5358,	r5	;#0x14ee
    55f4:	c1 23       	jnz	$-124    	;abs 0x5578
    55f6:	24 41       	mov	@r1,	r4	
    55f8:	15 41 02 00 	mov	2(r1),	r5	;0x0002(r1)
    55fc:	c1 93 04 00 	tst.b	4(r1)		;0x0004(r1)
    5600:	10 24       	jz	$+34     	;abs 0x5622
    5602:	07 93       	tst	r7		
    5604:	03 34       	jge	$+8      	;abs 0x560c
    5606:	12 c3       	clrc			
    5608:	07 10       	rrc	r7		
    560a:	06 10       	rrc	r6		
    560c:	82 44 f4 14 	mov	r4,	&0x14f4	
    5610:	82 45 f6 14 	mov	r5,	&0x14f6	
    5614:	82 46 c2 11 	mov	r6,	&0x11c2	
    5618:	82 47 c4 11 	mov	r7,	&0x11c4	
    561c:	b0 12 56 54 	call	#0x5456	
    5620:	03 3c       	jmp	$+8      	;abs 0x5628
    5622:	b2 f0 ef ff 88 01 	and	#-17,	&0x0188	;#0xffef
    5628:	31 50 06 00 	add	#6,	r1	;#0x0006
    562c:	34 41       	pop	r4		
    562e:	35 41       	pop	r5		
    5630:	36 41       	pop	r6		
    5632:	37 41       	pop	r7		
    5634:	38 41       	pop	r8		
    5636:	39 41       	pop	r9		
    5638:	3a 41       	pop	r10		
    563a:	3b 41       	pop	r11		
    563c:	30 41       	ret			

0000563e <TransformAlarmC__3__set_alarm>:
    563e:	0b 12       	push	r11		
    5640:	0a 12       	push	r10		
    5642:	09 12       	push	r9		
    5644:	08 12       	push	r8		
    5646:	b0 12 aa 53 	call	#0x53aa	
    564a:	08 4e       	mov	r14,	r8	
    564c:	09 4f       	mov	r15,	r9	
    564e:	1e 42 62 13 	mov	&0x1362,r14	
    5652:	1f 42 64 13 	mov	&0x1364,r15	
    5656:	0a 4e       	mov	r14,	r10	
    5658:	0b 4f       	mov	r15,	r11	
    565a:	1a 52 8a 15 	add	&0x158a,r10	
    565e:	1b 62 8c 15 	addc	&0x158c,r11	
    5662:	09 9f       	cmp	r15,	r9	
    5664:	09 28       	jnc	$+20     	;abs 0x5678
    5666:	02 20       	jnz	$+6      	;abs 0x566c
    5668:	08 9e       	cmp	r14,	r8	
    566a:	06 28       	jnc	$+14     	;abs 0x5678
    566c:	0b 9f       	cmp	r15,	r11	
    566e:	10 28       	jnc	$+34     	;abs 0x5690
    5670:	09 20       	jnz	$+20     	;abs 0x5684
    5672:	0a 9e       	cmp	r14,	r10	
    5674:	0d 28       	jnc	$+28     	;abs 0x5690
    5676:	06 3c       	jmp	$+14     	;abs 0x5684
    5678:	0b 9f       	cmp	r15,	r11	
    567a:	04 28       	jnc	$+10     	;abs 0x5684
    567c:	0f 9b       	cmp	r11,	r15	
    567e:	27 28       	jnc	$+80     	;abs 0x56ce
    5680:	0a 9e       	cmp	r14,	r10	
    5682:	25 2c       	jc	$+76     	;abs 0x56ce
    5684:	09 9b       	cmp	r11,	r9	
    5686:	04 28       	jnc	$+10     	;abs 0x5690
    5688:	0b 99       	cmp	r9,	r11	
    568a:	21 28       	jnc	$+68     	;abs 0x56ce
    568c:	08 9a       	cmp	r10,	r8	
    568e:	1f 2c       	jc	$+64     	;abs 0x56ce
    5690:	0c 4a       	mov	r10,	r12	
    5692:	0d 4b       	mov	r11,	r13	
    5694:	0c 88       	sub	r8,	r12	
    5696:	0d 79       	subc	r9,	r13	
    5698:	0d 93       	tst	r13		
    569a:	03 20       	jnz	$+8      	;abs 0x56a2
    569c:	3c 90 01 80 	cmp	#-32767,r12	;#0x8001
    56a0:	18 28       	jnc	$+50     	;abs 0x56d2
    56a2:	0e 48       	mov	r8,	r14	
    56a4:	0f 49       	mov	r9,	r15	
    56a6:	3e 50 00 80 	add	#-32768,r14	;#0x8000
    56aa:	0f 63       	adc	r15		
    56ac:	82 4e 62 13 	mov	r14,	&0x1362	
    56b0:	82 4f 64 13 	mov	r15,	&0x1364	
    56b4:	0e 4c       	mov	r12,	r14	
    56b6:	0f 4d       	mov	r13,	r15	
    56b8:	3e 50 00 80 	add	#-32768,r14	;#0x8000
    56bc:	3f 63       	addc	#-1,	r15	;r3 As==11
    56be:	82 4e 8a 15 	mov	r14,	&0x158a	
    56c2:	82 4f 8c 15 	mov	r15,	&0x158c	
    56c6:	3c 40 00 80 	mov	#-32768,r12	;#0x8000
    56ca:	0d 43       	clr	r13		
    56cc:	0a 3c       	jmp	$+22     	;abs 0x56e2
    56ce:	0c 43       	clr	r12		
    56d0:	0d 43       	clr	r13		
    56d2:	82 4a 62 13 	mov	r10,	&0x1362	
    56d6:	82 4b 64 13 	mov	r11,	&0x1364	
    56da:	82 43 8a 15 	mov	#0,	&0x158a	;r3 As==00
    56de:	82 43 8c 15 	mov	#0,	&0x158c	;r3 As==00
    56e2:	0a 4c       	mov	r12,	r10	
    56e4:	b0 12 08 46 	call	#0x4608	
    56e8:	0e 4f       	mov	r15,	r14	
    56ea:	0e 88       	sub	r8,	r14	
    56ec:	0e 9a       	cmp	r10,	r14	
    56ee:	05 2c       	jc	$+12     	;abs 0x56fa
    56f0:	0c 4a       	mov	r10,	r12	
    56f2:	0c 8e       	sub	r14,	r12	
    56f4:	3c 90 03 00 	cmp	#3,	r12	;#0x0003
    56f8:	06 2c       	jc	$+14     	;abs 0x5706
    56fa:	b0 12 08 46 	call	#0x4608	
    56fe:	2f 53       	incd	r15		
    5700:	82 4f 9a 01 	mov	r15,	&0x019a	
    5704:	03 3c       	jmp	$+8      	;abs 0x570c
    5706:	0c 5f       	add	r15,	r12	
    5708:	82 4c 9a 01 	mov	r12,	&0x019a	
    570c:	b2 f0 fe ff 8a 01 	and	#-2,	&0x018a	;#0xfffe
    5712:	b2 d0 10 00 8a 01 	bis	#16,	&0x018a	;#0x0010
    5718:	38 41       	pop	r8		
    571a:	39 41       	pop	r9		
    571c:	3a 41       	pop	r10		
    571e:	3b 41       	pop	r11		
    5720:	30 41       	ret			

00005722 <TKN154TimingP__SymbolAlarm__startAt>:
    5722:	0b 12       	push	r11		
    5724:	0a 12       	push	r10		
    5726:	09 12       	push	r9		
    5728:	08 12       	push	r8		
    572a:	07 12       	push	r7		
    572c:	06 12       	push	r6		
    572e:	08 4e       	mov	r14,	r8	
    5730:	09 4f       	mov	r15,	r9	
    5732:	06 4c       	mov	r12,	r6	
    5734:	07 4d       	mov	r13,	r7	
    5736:	b0 12 aa 53 	call	#0x53aa	
    573a:	0a 4e       	mov	r14,	r10	
    573c:	0b 4f       	mov	r15,	r11	
    573e:	0a 5a       	rla	r10		
    5740:	0b 6b       	rlc	r11		
    5742:	0a 88       	sub	r8,	r10	
    5744:	0b 79       	subc	r9,	r11	
    5746:	b0 12 aa 53 	call	#0x53aa	
    574a:	82 4e 62 13 	mov	r14,	&0x1362	
    574e:	82 4f 64 13 	mov	r15,	&0x1364	
    5752:	0e 4a       	mov	r10,	r14	
    5754:	0f 4b       	mov	r11,	r15	
    5756:	0b 97       	cmp	r7,	r11	
    5758:	04 28       	jnc	$+10     	;abs 0x5762
    575a:	07 9b       	cmp	r11,	r7	
    575c:	04 28       	jnc	$+10     	;abs 0x5766
    575e:	0a 96       	cmp	r6,	r10	
    5760:	02 2c       	jc	$+6      	;abs 0x5766
    5762:	0e 46       	mov	r6,	r14	
    5764:	0f 47       	mov	r7,	r15	
    5766:	0e 8a       	sub	r10,	r14	
    5768:	0f 7b       	subc	r11,	r15	
    576a:	82 4e 8a 15 	mov	r14,	&0x158a	
    576e:	82 4f 8c 15 	mov	r15,	&0x158c	
    5772:	12 c3       	clrc			
    5774:	12 10 8c 15 	rrc	&0x158c	
    5778:	12 10 8a 15 	rrc	&0x158a	
    577c:	b0 12 3e 56 	call	#0x563e	
    5780:	36 41       	pop	r6		
    5782:	37 41       	pop	r7		
    5784:	38 41       	pop	r8		
    5786:	39 41       	pop	r9		
    5788:	3a 41       	pop	r10		
    578a:	3b 41       	pop	r11		
    578c:	30 41       	ret			

0000578e <CC2420TKN154P__ReliableWait__waitBackoff.part.175>:
    578e:	0b 12       	push	r11		
    5790:	0a 12       	push	r10		
    5792:	0a 4e       	mov	r14,	r10	
    5794:	0b 4f       	mov	r15,	r11	
    5796:	f2 40 03 00 1e 11 	mov.b	#3,	&0x111e	;#0x0003
    579c:	b0 12 aa 53 	call	#0x53aa	
    57a0:	82 4e 62 13 	mov	r14,	&0x1362	
    57a4:	82 4f 64 13 	mov	r15,	&0x1364	
    57a8:	82 4a 8a 15 	mov	r10,	&0x158a	
    57ac:	82 4b 8c 15 	mov	r11,	&0x158c	
    57b0:	12 c3       	clrc			
    57b2:	12 10 8c 15 	rrc	&0x158c	
    57b6:	12 10 8a 15 	rrc	&0x158a	
    57ba:	b0 12 3e 56 	call	#0x563e	
    57be:	3a 41       	pop	r10		
    57c0:	3b 41       	pop	r11		
    57c2:	30 41       	ret			

000057c4 <TransformAlarmC__1__set_alarm>:
    57c4:	0b 12       	push	r11		
    57c6:	0a 12       	push	r10		
    57c8:	09 12       	push	r9		
    57ca:	08 12       	push	r8		
    57cc:	b0 12 aa 53 	call	#0x53aa	
    57d0:	08 4e       	mov	r14,	r8	
    57d2:	09 4f       	mov	r15,	r9	
    57d4:	1e 42 40 11 	mov	&0x1140,r14	
    57d8:	1f 42 42 11 	mov	&0x1142,r15	
    57dc:	0a 4e       	mov	r14,	r10	
    57de:	0b 4f       	mov	r15,	r11	
    57e0:	1a 52 b6 11 	add	&0x11b6,r10	
    57e4:	1b 62 b8 11 	addc	&0x11b8,r11	
    57e8:	09 9f       	cmp	r15,	r9	
    57ea:	09 28       	jnc	$+20     	;abs 0x57fe
    57ec:	02 20       	jnz	$+6      	;abs 0x57f2
    57ee:	08 9e       	cmp	r14,	r8	
    57f0:	06 28       	jnc	$+14     	;abs 0x57fe
    57f2:	0b 9f       	cmp	r15,	r11	
    57f4:	10 28       	jnc	$+34     	;abs 0x5816
    57f6:	09 20       	jnz	$+20     	;abs 0x580a
    57f8:	0a 9e       	cmp	r14,	r10	
    57fa:	0d 28       	jnc	$+28     	;abs 0x5816
    57fc:	06 3c       	jmp	$+14     	;abs 0x580a
    57fe:	0b 9f       	cmp	r15,	r11	
    5800:	04 28       	jnc	$+10     	;abs 0x580a
    5802:	0f 9b       	cmp	r11,	r15	
    5804:	27 28       	jnc	$+80     	;abs 0x5854
    5806:	0a 9e       	cmp	r14,	r10	
    5808:	25 2c       	jc	$+76     	;abs 0x5854
    580a:	09 9b       	cmp	r11,	r9	
    580c:	04 28       	jnc	$+10     	;abs 0x5816
    580e:	0b 99       	cmp	r9,	r11	
    5810:	21 28       	jnc	$+68     	;abs 0x5854
    5812:	08 9a       	cmp	r10,	r8	
    5814:	1f 2c       	jc	$+64     	;abs 0x5854
    5816:	0c 4a       	mov	r10,	r12	
    5818:	0d 4b       	mov	r11,	r13	
    581a:	0c 88       	sub	r8,	r12	
    581c:	0d 79       	subc	r9,	r13	
    581e:	0d 93       	tst	r13		
    5820:	03 20       	jnz	$+8      	;abs 0x5828
    5822:	3c 90 01 80 	cmp	#-32767,r12	;#0x8001
    5826:	18 28       	jnc	$+50     	;abs 0x5858
    5828:	0e 48       	mov	r8,	r14	
    582a:	0f 49       	mov	r9,	r15	
    582c:	3e 50 00 80 	add	#-32768,r14	;#0x8000
    5830:	0f 63       	adc	r15		
    5832:	82 4e 40 11 	mov	r14,	&0x1140	
    5836:	82 4f 42 11 	mov	r15,	&0x1142	
    583a:	0e 4c       	mov	r12,	r14	
    583c:	0f 4d       	mov	r13,	r15	
    583e:	3e 50 00 80 	add	#-32768,r14	;#0x8000
    5842:	3f 63       	addc	#-1,	r15	;r3 As==11
    5844:	82 4e b6 11 	mov	r14,	&0x11b6	
    5848:	82 4f b8 11 	mov	r15,	&0x11b8	
    584c:	3c 40 00 80 	mov	#-32768,r12	;#0x8000
    5850:	0d 43       	clr	r13		
    5852:	0a 3c       	jmp	$+22     	;abs 0x5868
    5854:	0c 43       	clr	r12		
    5856:	0d 43       	clr	r13		
    5858:	82 4a 40 11 	mov	r10,	&0x1140	
    585c:	82 4b 42 11 	mov	r11,	&0x1142	
    5860:	82 43 b6 11 	mov	#0,	&0x11b6	;r3 As==00
    5864:	82 43 b8 11 	mov	#0,	&0x11b8	;r3 As==00
    5868:	0a 4c       	mov	r12,	r10	
    586a:	b0 12 08 46 	call	#0x4608	
    586e:	0e 4f       	mov	r15,	r14	
    5870:	0e 88       	sub	r8,	r14	
    5872:	0e 9a       	cmp	r10,	r14	
    5874:	05 2c       	jc	$+12     	;abs 0x5880
    5876:	0c 4a       	mov	r10,	r12	
    5878:	0c 8e       	sub	r14,	r12	
    587a:	3c 90 03 00 	cmp	#3,	r12	;#0x0003
    587e:	06 2c       	jc	$+14     	;abs 0x588c
    5880:	b0 12 08 46 	call	#0x4608	
    5884:	2f 53       	incd	r15		
    5886:	82 4f 96 01 	mov	r15,	&0x0196	
    588a:	03 3c       	jmp	$+8      	;abs 0x5892
    588c:	0c 5f       	add	r15,	r12	
    588e:	82 4c 96 01 	mov	r12,	&0x0196	
    5892:	b2 f0 fe ff 86 01 	and	#-2,	&0x0186	;#0xfffe
    5898:	b2 d0 10 00 86 01 	bis	#16,	&0x0186	;#0x0010
    589e:	38 41       	pop	r8		
    58a0:	39 41       	pop	r9		
    58a2:	3a 41       	pop	r10		
    58a4:	3b 41       	pop	r11		
    58a6:	30 41       	ret			

000058a8 <CC2420TransmitP__CC2420Tx__send>:
    58a8:	0b 12       	push	r11		
    58aa:	4b 4f       	mov.b	r15,	r11	
    58ac:	b2 90 03 00 22 11 	cmp	#3,	&0x1122	;#0x0003
    58b2:	36 20       	jnz	$+110    	;abs 0x5920
    58b4:	b0 12 b4 45 	call	#0x45b4	
    58b8:	b0 12 ac 45 	call	#0x45ac	
    58bc:	4b 93       	tst.b	r11		
    58be:	03 24       	jz	$+8      	;abs 0x58c6
    58c0:	7f 40 05 00 	mov.b	#5,	r15	;#0x0005
    58c4:	01 3c       	jmp	$+4      	;abs 0x58c8
    58c6:	6f 42       	mov.b	#4,	r15	;r2 As==10
    58c8:	b0 12 50 46 	call	#0x4650	
    58cc:	3f f2       	and	#8,	r15	;r2 As==11
    58ce:	04 20       	jnz	$+10     	;abs 0x58d8
    58d0:	b0 12 50 46 	call	#0x4650	
    58d4:	3f f2       	and	#8,	r15	;r2 As==11
    58d6:	02 20       	jnz	$+6      	;abs 0x58dc
    58d8:	5b 43       	mov.b	#1,	r11	;r3 As==01
    58da:	01 3c       	jmp	$+4      	;abs 0x58de
    58dc:	4b 43       	clr.b	r11		
    58de:	b0 12 b4 45 	call	#0x45b4	
    58e2:	4b 93       	tst.b	r11		
    58e4:	1f 20       	jnz	$+64     	;abs 0x5924
    58e6:	a2 42 22 11 	mov	#4,	&0x1122	;r2 As==10
    58ea:	1f 42 6a 13 	mov	&0x136a,r15	
    58ee:	1f 4f 04 00 	mov	4(r15),	r15	;0x0004(r15)
    58f2:	ff 43 03 00 	mov.b	#-1,	3(r15)	;r3 As==11, 0x0003(r15)
    58f6:	ff 43 02 00 	mov.b	#-1,	2(r15)	;r3 As==11, 0x0002(r15)
    58fa:	ff 43 01 00 	mov.b	#-1,	1(r15)	;r3 As==11, 0x0001(r15)
    58fe:	ff 43 00 00 	mov.b	#-1,	0(r15)	;r3 As==11, 0x0000(r15)
    5902:	b0 12 aa 53 	call	#0x53aa	
    5906:	82 4e 40 11 	mov	r14,	&0x1140	
    590a:	82 4f 42 11 	mov	r15,	&0x1142	
    590e:	b2 40 e0 01 b6 11 	mov	#480,	&0x11b6	;#0x01e0
    5914:	82 43 b8 11 	mov	#0,	&0x11b8	;r3 As==00
    5918:	b0 12 c4 57 	call	#0x57c4	
    591c:	4f 43       	clr.b	r15		
    591e:	03 3c       	jmp	$+8      	;abs 0x5926
    5920:	6f 42       	mov.b	#4,	r15	;r2 As==10
    5922:	01 3c       	jmp	$+4      	;abs 0x5926
    5924:	5f 43       	mov.b	#1,	r15	;r3 As==01
    5926:	3b 41       	pop	r11		
    5928:	30 41       	ret			

0000592a <CC2420TKN154P__CC2420Power__rxOn>:
    592a:	0b 12       	push	r11		
    592c:	b0 12 32 4e 	call	#0x4e32	
    5930:	4b 4f       	mov.b	r15,	r11	
    5932:	b0 12 96 50 	call	#0x5096	
    5936:	4f 93       	tst.b	r15		
    5938:	05 20       	jnz	$+12     	;abs 0x5944
    593a:	4f 4b       	mov.b	r11,	r15	
    593c:	b0 12 44 4e 	call	#0x4e44	
    5940:	5f 43       	mov.b	#1,	r15	;r3 As==01
    5942:	12 3c       	jmp	$+38     	;abs 0x5968
    5944:	b0 12 ba 45 	call	#0x45ba	
    5948:	b0 12 c0 45 	call	#0x45c0	
    594c:	7f 40 03 00 	mov.b	#3,	r15	;#0x0003
    5950:	b0 12 50 46 	call	#0x4650	
    5954:	7f 40 0b 00 	mov.b	#11,	r15	;#0x000b
    5958:	b0 12 50 46 	call	#0x4650	
    595c:	b0 12 ba 45 	call	#0x45ba	
    5960:	4f 4b       	mov.b	r11,	r15	
    5962:	b0 12 44 4e 	call	#0x4e44	
    5966:	4f 43       	clr.b	r15		
    5968:	3b 41       	pop	r11		
    596a:	30 41       	ret			

0000596c <SimpleTransferArbiterP__0__Resource__isOwner>:
    596c:	0b 12       	push	r11		
    596e:	4b 4f       	mov.b	r15,	r11	
    5970:	b0 12 32 4e 	call	#0x4e32	
    5974:	4e 4f       	mov.b	r15,	r14	
    5976:	c2 9b 09 11 	cmp.b	r11,	&0x1109	
    597a:	07 20       	jnz	$+16     	;abs 0x598a
    597c:	e2 93 3a 11 	cmp.b	#2,	&0x113a	;r3 As==10
    5980:	04 20       	jnz	$+10     	;abs 0x598a
    5982:	b0 12 44 4e 	call	#0x4e44	
    5986:	5f 43       	mov.b	#1,	r15	;r3 As==01
    5988:	04 3c       	jmp	$+10     	;abs 0x5992
    598a:	4f 4e       	mov.b	r14,	r15	
    598c:	b0 12 44 4e 	call	#0x4e44	
    5990:	4f 43       	clr.b	r15		
    5992:	3b 41       	pop	r11		
    5994:	30 41       	ret			

00005996 <CC2420TKN154P__txSpiReserved>:
    5996:	0b 12       	push	r11		
    5998:	0a 12       	push	r10		
    599a:	b0 12 08 53 	call	#0x5308	
    599e:	b0 12 78 53 	call	#0x5378	
    59a2:	1b 42 ca 14 	mov	&0x14ca,r11	
    59a6:	b0 12 32 4e 	call	#0x4e32	
    59aa:	4a 4f       	mov.b	r15,	r10	
    59ac:	92 93 22 11 	cmp	#1,	&0x1122	;r3 As==01
    59b0:	23 20       	jnz	$+72     	;abs 0x59f8
    59b2:	a2 43 22 11 	mov	#2,	&0x1122	;r3 As==10
    59b6:	82 4b 6a 13 	mov	r11,	&0x136a	
    59ba:	2e 4b       	mov	@r11,	r14	
    59bc:	5f 4b 06 00 	mov.b	6(r11),	r15	;0x0006(r11)
    59c0:	5f 5b 07 00 	add.b	7(r11),	r15	;0x0007(r11)
    59c4:	6f 53       	incd.b	r15		
    59c6:	ce 4f 00 00 	mov.b	r15,	0(r14)	;0x0000(r14)
    59ca:	b0 12 b4 45 	call	#0x45b4	
    59ce:	b0 12 ac 45 	call	#0x45ac	
    59d2:	7f 40 09 00 	mov.b	#9,	r15	;#0x0009
    59d6:	b0 12 50 46 	call	#0x4650	
    59da:	b0 12 b4 45 	call	#0x45b4	
    59de:	b0 12 ac 45 	call	#0x45ac	
    59e2:	1f 42 6a 13 	mov	&0x136a,r15	
    59e6:	2d 4f       	mov	@r15,	r13	
    59e8:	c2 93 cd 14 	tst.b	&0x14cd	
    59ec:	04 24       	jz	$+10     	;abs 0x59f6
    59ee:	5e 43       	mov.b	#1,	r14	;r3 As==01
    59f0:	0f 4d       	mov	r13,	r15	
    59f2:	b0 12 00 4f 	call	#0x4f00	
    59f6:	4f 4a       	mov.b	r10,	r15	
    59f8:	b0 12 44 4e 	call	#0x4e44	
    59fc:	3a 41       	pop	r10		
    59fe:	3b 41       	pop	r11		
    5a00:	30 41       	ret			

00005a02 <SimpleTransferArbiterP__0__Resource__release>:
    5a02:	0b 12       	push	r11		
    5a04:	0a 12       	push	r10		
    5a06:	09 12       	push	r9		
    5a08:	08 12       	push	r8		
    5a0a:	07 12       	push	r7		
    5a0c:	4b 4f       	mov.b	r15,	r11	
    5a0e:	b0 12 32 4e 	call	#0x4e32	
    5a12:	47 4f       	mov.b	r15,	r7	
    5a14:	e2 93 3a 11 	cmp.b	#2,	&0x113a	;r3 As==10
    5a18:	39 20       	jnz	$+116    	;abs 0x5a8c
    5a1a:	c2 9b 09 11 	cmp.b	r11,	&0x1109	
    5a1e:	36 20       	jnz	$+110    	;abs 0x5a8c
    5a20:	c2 93 a6 13 	tst.b	&0x13a6	
    5a24:	03 20       	jnz	$+8      	;abs 0x5a2c
    5a26:	c2 93 a7 13 	tst.b	&0x13a7	
    5a2a:	3c 24       	jz	$+122    	;abs 0x5aa4
    5a2c:	59 42 3c 11 	mov.b	&0x113c,r9	
    5a30:	0d 49       	mov	r9,	r13	
    5a32:	1d 53       	inc	r13		
    5a34:	3d 90 0d 00 	cmp	#13,	r13	;#0x000d
    5a38:	01 20       	jnz	$+4      	;abs 0x5a3c
    5a3a:	0d 43       	clr	r13		
    5a3c:	4b 4d       	mov.b	r13,	r11	
    5a3e:	4e 4d       	mov.b	r13,	r14	
    5a40:	12 c3       	clrc			
    5a42:	4e 10       	rrc.b	r14		
    5a44:	12 c3       	clrc			
    5a46:	4e 10       	rrc.b	r14		
    5a48:	12 c3       	clrc			
    5a4a:	4e 10       	rrc.b	r14		
    5a4c:	4e 4e       	mov.b	r14,	r14	
    5a4e:	3e 50 a6 13 	add	#5030,	r14	;#0x13a6
    5a52:	68 4e       	mov.b	@r14,	r8	
    5a54:	1c 43       	mov	#1,	r12	;r3 As==01
    5a56:	4a 4b       	mov.b	r11,	r10	
    5a58:	7a f0 07 00 	and.b	#7,	r10	;#0x0007
    5a5c:	4a 93       	tst.b	r10		
    5a5e:	03 24       	jz	$+8      	;abs 0x5a66
    5a60:	0c 5c       	rla	r12		
    5a62:	7a 53       	add.b	#-1,	r10	;r3 As==11
    5a64:	fb 3f       	jmp	$-8      	;abs 0x5a5c
    5a66:	48 bc       	bit.b	r12,	r8	
    5a68:	06 24       	jz	$+14     	;abs 0x5a76
    5a6a:	48 cc       	bic.b	r12,	r8	
    5a6c:	ce 48 00 00 	mov.b	r8,	0(r14)	;0x0000(r14)
    5a70:	c2 4b 3c 11 	mov.b	r11,	&0x113c	
    5a74:	03 3c       	jmp	$+8      	;abs 0x5a7c
    5a76:	0d 99       	cmp	r9,	r13	
    5a78:	dc 23       	jnz	$-70     	;abs 0x5a32
    5a7a:	7b 43       	mov.b	#-1,	r11	;r3 As==11
    5a7c:	c2 4b af 11 	mov.b	r11,	&0x11af	
    5a80:	d2 43 3a 11 	mov.b	#1,	&0x113a	;r3 As==01
    5a84:	6f 42       	mov.b	#4,	r15	;r2 As==10
    5a86:	b0 12 4c 4e 	call	#0x4e4c	
    5a8a:	10 3c       	jmp	$+34     	;abs 0x5aac
    5a8c:	4b 43       	clr.b	r11		
    5a8e:	4f 47       	mov.b	r7,	r15	
    5a90:	b0 12 44 4e 	call	#0x4e44	
    5a94:	4f 4b       	mov.b	r11,	r15	
    5a96:	5f e3       	xor.b	#1,	r15	;r3 As==01
    5a98:	37 41       	pop	r7		
    5a9a:	38 41       	pop	r8		
    5a9c:	39 41       	pop	r9		
    5a9e:	3a 41       	pop	r10		
    5aa0:	3b 41       	pop	r11		
    5aa2:	30 41       	ret			
    5aa4:	f2 43 09 11 	mov.b	#-1,	&0x1109	;r3 As==11
    5aa8:	c2 43 3a 11 	mov.b	#0,	&0x113a	;r3 As==00
    5aac:	5b 43       	mov.b	#1,	r11	;r3 As==01
    5aae:	ef 3f       	jmp	$-32     	;abs 0x5a8e

00005ab0 <RadioControlImplP__MacRadioOff__off>:
    5ab0:	0b 12       	push	r11		
    5ab2:	4b 4f       	mov.b	r15,	r11	
    5ab4:	b0 12 5e 52 	call	#0x525e	
    5ab8:	4b 9f       	cmp.b	r15,	r11	
    5aba:	19 20       	jnz	$+52     	;abs 0x5aee
    5abc:	b0 12 32 4e 	call	#0x4e32	
    5ac0:	1e 42 2a 11 	mov	&0x112a,r14	
    5ac4:	2e 92       	cmp	#4,	r14	;r2 As==10
    5ac6:	05 20       	jnz	$+12     	;abs 0x5ad2
    5ac8:	b0 12 44 4e 	call	#0x4e44	
    5acc:	7f 40 09 00 	mov.b	#9,	r15	;#0x0009
    5ad0:	10 3c       	jmp	$+34     	;abs 0x5af2
    5ad2:	3e 90 07 00 	cmp	#7,	r14	;#0x0007
    5ad6:	04 24       	jz	$+10     	;abs 0x5ae0
    5ad8:	b0 12 44 4e 	call	#0x4e44	
    5adc:	5f 43       	mov.b	#1,	r15	;r3 As==01
    5ade:	09 3c       	jmp	$+20     	;abs 0x5af2
    5ae0:	b2 42 2a 11 	mov	#8,	&0x112a	;r2 As==11
    5ae4:	b0 12 44 4e 	call	#0x4e44	
    5ae8:	b0 12 b0 50 	call	#0x50b0	
    5aec:	02 3c       	jmp	$+6      	;abs 0x5af2
    5aee:	7f 40 05 00 	mov.b	#5,	r15	;#0x0005
    5af2:	3b 41       	pop	r11		
    5af4:	30 41       	ret			

00005af6 <CC2420SpiP__Resource__request>:
    5af6:	0b 12       	push	r11		
    5af8:	0a 12       	push	r10		
    5afa:	4b 4f       	mov.b	r15,	r11	
    5afc:	b0 12 32 4e 	call	#0x4e32	
    5b00:	4a 4f       	mov.b	r15,	r10	
    5b02:	c2 93 cd 14 	tst.b	&0x14cd	
    5b06:	08 20       	jnz	$+18     	;abs 0x5b18
    5b08:	d2 43 cd 14 	mov.b	#1,	&0x14cd	;r3 As==01
    5b0c:	c2 4b 07 11 	mov.b	r11,	&0x1107	
    5b10:	c2 93 04 11 	tst.b	&0x1104	
    5b14:	0d 24       	jz	$+28     	;abs 0x5b30
    5b16:	3c 3c       	jmp	$+122    	;abs 0x5b90
    5b18:	1e 43       	mov	#1,	r14	;r3 As==01
    5b1a:	4d 4b       	mov.b	r11,	r13	
    5b1c:	7d f0 0f 00 	and.b	#15,	r13	;#0x000f
    5b20:	4d 93       	tst.b	r13		
    5b22:	03 24       	jz	$+8      	;abs 0x5b2a
    5b24:	0e 5e       	rla	r14		
    5b26:	7d 53       	add.b	#-1,	r13	;r3 As==11
    5b28:	fb 3f       	jmp	$-8      	;abs 0x5b20
    5b2a:	c2 de 26 11 	bis.b	r14,	&0x1126	
    5b2e:	29 3c       	jmp	$+84     	;abs 0x5b82
    5b30:	f2 90 03 00 24 11 	cmp.b	#3,	&0x1124	;#0x0003
    5b36:	2c 20       	jnz	$+90     	;abs 0x5b90
    5b38:	7f 40 15 00 	mov.b	#21,	r15	;#0x0015
    5b3c:	b0 12 4c 4e 	call	#0x4e4c	
    5b40:	20 3c       	jmp	$+66     	;abs 0x5b82
    5b42:	d2 43 24 11 	mov.b	#1,	&0x1124	;r3 As==01
    5b46:	c2 43 f9 14 	mov.b	#0,	&0x14f9	;r3 As==00
    5b4a:	b0 12 e0 4f 	call	#0x4fe0	
    5b4e:	19 3c       	jmp	$+52     	;abs 0x5b82
    5b50:	c2 93 f9 14 	tst.b	&0x14f9	
    5b54:	16 24       	jz	$+46     	;abs 0x5b82
    5b56:	1e 43       	mov	#1,	r14	;r3 As==01
    5b58:	f2 93 ba 11 	cmp.b	#-1,	&0x11ba	;r3 As==11
    5b5c:	04 20       	jnz	$+10     	;abs 0x5b66
    5b5e:	c2 93 05 11 	tst.b	&0x1105	
    5b62:	01 24       	jz	$+4      	;abs 0x5b66
    5b64:	0e 43       	clr	r14		
    5b66:	0e 93       	tst	r14		
    5b68:	0c 20       	jnz	$+26     	;abs 0x5b82
    5b6a:	f2 93 06 11 	cmp.b	#-1,	&0x1106	;r3 As==11
    5b6e:	03 20       	jnz	$+8      	;abs 0x5b76
    5b70:	c2 43 06 11 	mov.b	#0,	&0x1106	;r3 As==00
    5b74:	04 3c       	jmp	$+10     	;abs 0x5b7e
    5b76:	5e 42 05 11 	mov.b	&0x1105,r14	
    5b7a:	ce 43 ba 11 	mov.b	#0,	4538(r14);r3 As==00, 0x11ba(r14)
    5b7e:	c2 43 05 11 	mov.b	#0,	&0x1105	;r3 As==00
    5b82:	4f 4a       	mov.b	r10,	r15	
    5b84:	b0 12 44 4e 	call	#0x4e44	
    5b88:	4f 43       	clr.b	r15		
    5b8a:	3a 41       	pop	r10		
    5b8c:	3b 41       	pop	r11		
    5b8e:	30 41       	ret			
    5b90:	c2 93 24 11 	tst.b	&0x1124	
    5b94:	dd 23       	jnz	$-68     	;abs 0x5b50
    5b96:	d5 3f       	jmp	$-84     	;abs 0x5b42

00005b98 <CC2420TKN154P__SpiResource__request>:
    5b98:	4f 43       	clr.b	r15		
    5b9a:	b0 12 f6 5a 	call	#0x5af6	
    5b9e:	30 41       	ret			

00005ba0 <RandomMlcgC__Random__rand32>:
    5ba0:	0b 12       	push	r11		
    5ba2:	0a 12       	push	r10		
    5ba4:	09 12       	push	r9		
    5ba6:	08 12       	push	r8		
    5ba8:	07 12       	push	r7		
    5baa:	06 12       	push	r6		
    5bac:	05 12       	push	r5		
    5bae:	b0 12 32 4e 	call	#0x4e32	
    5bb2:	45 4f       	mov.b	r15,	r5	
    5bb4:	3c 40 4e 83 	mov	#-31922,r12	;#0x834e
    5bb8:	0d 43       	clr	r13		
    5bba:	1e 42 a2 12 	mov	&0x12a2,r14	
    5bbe:	1f 42 a4 12 	mov	&0x12a4,r15	
    5bc2:	b0 12 be 97 	call	#0x97be	
    5bc6:	07 4d       	mov	r13,	r7	
    5bc8:	08 4e       	mov	r14,	r8	
    5bca:	09 4f       	mov	r15,	r9	
    5bcc:	0e 4c       	mov	r12,	r14	
    5bce:	0f 47       	mov	r7,	r15	
    5bd0:	12 c3       	clrc			
    5bd2:	0f 10       	rrc	r15		
    5bd4:	0e 10       	rrc	r14		
    5bd6:	08 5e       	add	r14,	r8	
    5bd8:	09 6f       	addc	r15,	r9	
    5bda:	09 93       	tst	r9		
    5bdc:	05 34       	jge	$+12     	;abs 0x5be8
    5bde:	38 f3       	and	#-1,	r8	;r3 As==11
    5be0:	39 f0 ff 7f 	and	#32767,	r9	;#0x7fff
    5be4:	18 53       	inc	r8		
    5be6:	09 63       	adc	r9		
    5be8:	82 48 a2 12 	mov	r8,	&0x12a2	
    5bec:	82 49 a4 12 	mov	r9,	&0x12a4	
    5bf0:	4f 45       	mov.b	r5,	r15	
    5bf2:	b0 12 44 4e 	call	#0x4e44	
    5bf6:	0e 48       	mov	r8,	r14	
    5bf8:	0f 49       	mov	r9,	r15	
    5bfa:	35 41       	pop	r5		
    5bfc:	36 41       	pop	r6		
    5bfe:	37 41       	pop	r7		
    5c00:	38 41       	pop	r8		
    5c02:	39 41       	pop	r9		
    5c04:	3a 41       	pop	r10		
    5c06:	3b 41       	pop	r11		
    5c08:	30 41       	ret			

00005c0a <CC2420TKN154P__nextIterationUnslottedCsma>:
    5c0a:	0b 12       	push	r11		
    5c0c:	1f 42 80 11 	mov	&0x1180,r15	
    5c10:	6b 4f       	mov.b	@r15,	r11	
    5c12:	b0 12 a0 5b 	call	#0x5ba0	
    5c16:	b2 40 0d 00 2a 11 	mov	#13,	&0x112a	;#0x000d
    5c1c:	c2 93 1e 11 	tst.b	&0x111e	
    5c20:	13 20       	jnz	$+40     	;abs 0x5c48
    5c22:	3f 43       	mov	#-1,	r15	;r3 As==11
    5c24:	4d 4b       	mov.b	r11,	r13	
    5c26:	7d f0 0f 00 	and.b	#15,	r13	;#0x000f
    5c2a:	4d 93       	tst.b	r13		
    5c2c:	03 24       	jz	$+8      	;abs 0x5c34
    5c2e:	0f 5f       	rla	r15		
    5c30:	7d 53       	add.b	#-1,	r13	;r3 As==11
    5c32:	fb 3f       	jmp	$-8      	;abs 0x5c2a
    5c34:	0e cf       	bic	r15,	r14	
    5c36:	0e 5e       	rla	r14		
    5c38:	0e 5e       	rla	r14		
    5c3a:	0f 4e       	mov	r14,	r15	
    5c3c:	0f 5f       	rla	r15		
    5c3e:	0f 5f       	rla	r15		
    5c40:	0e 5f       	add	r15,	r14	
    5c42:	0f 43       	clr	r15		
    5c44:	b0 12 8e 57 	call	#0x578e	
    5c48:	3b 41       	pop	r11		
    5c4a:	30 41       	ret			

00005c4c <CC2420TKN154P__nextIterationSlottedCsma>:
    5c4c:	0b 12       	push	r11		
    5c4e:	c2 93 8e 15 	tst.b	&0x158e	
    5c52:	05 24       	jz	$+12     	;abs 0x5c5e
    5c54:	1b 42 38 15 	mov	&0x1538,r11	
    5c58:	c2 43 8e 15 	mov.b	#0,	&0x158e	;r3 As==00
    5c5c:	16 3c       	jmp	$+46     	;abs 0x5c8a
    5c5e:	1f 42 80 11 	mov	&0x1180,r15	
    5c62:	6b 4f       	mov.b	@r15,	r11	
    5c64:	b0 12 a0 5b 	call	#0x5ba0	
    5c68:	3f 43       	mov	#-1,	r15	;r3 As==11
    5c6a:	4d 4b       	mov.b	r11,	r13	
    5c6c:	7d f0 0f 00 	and.b	#15,	r13	;#0x000f
    5c70:	4d 93       	tst.b	r13		
    5c72:	03 24       	jz	$+8      	;abs 0x5c7a
    5c74:	0f 5f       	rla	r15		
    5c76:	7d 53       	add.b	#-1,	r13	;r3 As==11
    5c78:	fb 3f       	jmp	$-8      	;abs 0x5c70
    5c7a:	0e cf       	bic	r15,	r14	
    5c7c:	0e 5e       	rla	r14		
    5c7e:	0e 5e       	rla	r14		
    5c80:	0f 4e       	mov	r14,	r15	
    5c82:	0f 5f       	rla	r15		
    5c84:	0f 5f       	rla	r15		
    5c86:	0b 4e       	mov	r14,	r11	
    5c88:	0b 5f       	add	r15,	r11	
    5c8a:	5f 43       	mov.b	#1,	r15	;r3 As==01
    5c8c:	b0 12 f4 53 	call	#0x53f4	
    5c90:	0c 4e       	mov	r14,	r12	
    5c92:	0d 4f       	mov	r15,	r13	
    5c94:	1c 82 c8 11 	sub	&0x11c8,r12	
    5c98:	1d 72 ca 11 	subc	&0x11ca,r13	
    5c9c:	0e 4b       	mov	r11,	r14	
    5c9e:	0f 43       	clr	r15		
    5ca0:	0c 5e       	add	r14,	r12	
    5ca2:	0d 6f       	addc	r15,	r13	
    5ca4:	82 9d 76 11 	cmp	r13,	&0x1176	
    5ca8:	06 28       	jnc	$+14     	;abs 0x5cb6
    5caa:	1d 92 76 11 	cmp	&0x1176,r13	
    5cae:	07 28       	jnc	$+16     	;abs 0x5cbe
    5cb0:	82 9c 74 11 	cmp	r12,	&0x1174	
    5cb4:	04 2c       	jc	$+10     	;abs 0x5cbe
    5cb6:	82 93 ca 14 	tst	&0x14ca	
    5cba:	0a 20       	jnz	$+22     	;abs 0x5cd0
    5cbc:	11 3c       	jmp	$+36     	;abs 0x5ce0
    5cbe:	b2 40 0e 00 2a 11 	mov	#14,	&0x112a	;#0x000e
    5cc4:	c2 93 1e 11 	tst.b	&0x111e	
    5cc8:	0b 20       	jnz	$+24     	;abs 0x5ce0
    5cca:	b0 12 8e 57 	call	#0x578e	
    5cce:	08 3c       	jmp	$+18     	;abs 0x5ce0
    5cd0:	c2 43 82 11 	mov.b	#0,	&0x1182	;r3 As==00
    5cd4:	b0 12 8a 51 	call	#0x518a	
    5cd8:	b0 12 3e 52 	call	#0x523e	
    5cdc:	a2 42 2a 11 	mov	#4,	&0x112a	;r2 As==10
    5ce0:	3b 41       	pop	r11		
    5ce2:	30 41       	ret			

00005ce4 <PibP__resetAttributesToDefault>:
    5ce4:	0b 12       	push	r11		
    5ce6:	3f 40 d9 11 	mov	#4569,	r15	;#0x11d9
    5cea:	ff 40 1a 00 00 00 	mov.b	#26,	0(r15)	;#0x001a, 0x0000(r15)
    5cf0:	ff 40 80 ff 01 00 	mov.b	#-128,	1(r15)	;#0xff80, 0x0001(r15)
    5cf6:	ff 40 03 00 02 00 	mov.b	#3,	2(r15)	;#0x0003, 0x0002(r15)
    5cfc:	cf 43 03 00 	mov.b	#0,	3(r15)	;r3 As==00, 0x0003(r15)
    5d00:	cf 43 fd ff 	mov.b	#0,	-3(r15)	;r3 As==00, 0xfffd(r15)
    5d04:	3b 40 d0 11 	mov	#4560,	r11	;#0x11d0
    5d08:	cb 43 00 00 	mov.b	#0,	0(r11)	;r3 As==00, 0x0000(r11)
    5d0c:	db 43 01 00 	mov.b	#1,	1(r11)	;r3 As==01, 0x0001(r11)
    5d10:	cb 43 02 00 	mov.b	#0,	2(r11)	;r3 As==00, 0x0002(r11)
    5d14:	fb 40 06 00 0d 00 	mov.b	#6,	13(r11)	;#0x0006, 0x000d(r11)
    5d1a:	cb 43 0e 00 	mov.b	#0,	14(r11)	;r3 As==00, 0x000e(r11)
    5d1e:	fb 40 0f 00 0f 00 	mov.b	#15,	15(r11)	;#0x000f, 0x000f(r11)
    5d24:	8b 43 24 00 	mov	#0,	36(r11)	;r3 As==00, 0x0024(r11)
    5d28:	8b 43 26 00 	mov	#0,	38(r11)	;r3 As==00, 0x0026(r11)
    5d2c:	b0 12 a0 5b 	call	#0x5ba0	
    5d30:	cb 4e 10 00 	mov.b	r14,	16(r11)	;0x0010(r11)
    5d34:	bb 43 18 00 	mov	#-1,	24(r11)	;r3 As==11, 0x0018(r11)
    5d38:	b0 12 a0 5b 	call	#0x5ba0	
    5d3c:	cb 4e 11 00 	mov.b	r14,	17(r11)	;0x0011(r11)
    5d40:	db 43 03 00 	mov.b	#1,	3(r11)	;r3 As==01, 0x0003(r11)
    5d44:	fb 40 05 00 15 00 	mov.b	#5,	21(r11)	;#0x0005, 0x0015(r11)
    5d4a:	eb 42 12 00 	mov.b	#4,	18(r11)	;r2 As==10, 0x0012(r11)
    5d4e:	fb 40 03 00 16 00 	mov.b	#3,	22(r11)	;#0x0003, 0x0016(r11)
    5d54:	fb 40 03 00 13 00 	mov.b	#3,	19(r11)	;#0x0003, 0x0013(r11)
    5d5a:	bb 43 1a 00 	mov	#-1,	26(r11)	;r3 As==11, 0x001a(r11)
    5d5e:	cb 43 04 00 	mov.b	#0,	4(r11)	;r3 As==00, 0x0004(r11)
    5d62:	fb 40 20 00 17 00 	mov.b	#32,	23(r11)	;#0x0020, 0x0017(r11)
    5d68:	cb 43 05 00 	mov.b	#0,	5(r11)	;r3 As==00, 0x0005(r11)
    5d6c:	cb 43 07 00 	mov.b	#0,	7(r11)	;r3 As==00, 0x0007(r11)
    5d70:	bb 43 1c 00 	mov	#-1,	28(r11)	;r3 As==11, 0x001c(r11)
    5d74:	fb 40 0f 00 14 00 	mov.b	#15,	20(r11)	;#0x000f, 0x0014(r11)
    5d7a:	bb 40 f4 01 1e 00 	mov	#500,	30(r11)	;#0x01f4, 0x001e(r11)
    5d80:	cb 43 08 00 	mov.b	#0,	8(r11)	;r3 As==00, 0x0008(r11)
    5d84:	bb 40 c2 07 20 00 	mov	#1986,	32(r11)	;#0x07c2, 0x0020(r11)
    5d8a:	8b 43 22 00 	mov	#0,	34(r11)	;r3 As==00, 0x0022(r11)
    5d8e:	3b 41       	pop	r11		
    5d90:	30 41       	ret			

00005d92 <Msp430InterruptC__2__Interrupt__disable>:
    5d92:	b0 12 32 4e 	call	#0x4e32	
    5d96:	f2 f0 df ff 25 00 	and.b	#-33,	&0x0025	;#0xffdf
    5d9c:	f2 f0 df ff 23 00 	and.b	#-33,	&0x0023	;#0xffdf
    5da2:	b0 12 44 4e 	call	#0x4e44	
    5da6:	4f 43       	clr.b	r15		
    5da8:	30 41       	ret			

00005daa <LedsP__Led2__set>:
    5daa:	b0 12 32 4e 	call	#0x4e32	
    5dae:	f2 d0 40 00 31 00 	bis.b	#64,	&0x0031	;#0x0040
    5db4:	b0 12 44 4e 	call	#0x4e44	
    5db8:	30 41       	ret			

00005dba <TransformAlarmC__0__Counter__get>:
    5dba:	0b 12       	push	r11		
    5dbc:	0a 12       	push	r10		
    5dbe:	09 12       	push	r9		
    5dc0:	08 12       	push	r8		
    5dc2:	07 12       	push	r7		
    5dc4:	b0 12 32 4e 	call	#0x4e32	
    5dc8:	47 4f       	mov.b	r15,	r7	
    5dca:	1a 42 6c 13 	mov	&0x136c,r10	
    5dce:	1b 42 6e 13 	mov	&0x136e,r11	
    5dd2:	b0 12 08 46 	call	#0x4608	
    5dd6:	0d 4f       	mov	r15,	r13	
    5dd8:	1f 42 80 01 	mov	&0x0180,r15	
    5ddc:	5f f3       	and.b	#1,	r15	;r3 As==01
    5dde:	05 24       	jz	$+12     	;abs 0x5dea
    5de0:	1a 53       	inc	r10		
    5de2:	0b 63       	adc	r11		
    5de4:	b0 12 08 46 	call	#0x4608	
    5de8:	0d 4f       	mov	r15,	r13	
    5dea:	12 c3       	clrc			
    5dec:	0d 10       	rrc	r13		
    5dee:	12 c3       	clrc			
    5df0:	0d 10       	rrc	r13		
    5df2:	12 c3       	clrc			
    5df4:	0d 10       	rrc	r13		
    5df6:	12 c3       	clrc			
    5df8:	0d 10       	rrc	r13		
    5dfa:	12 c3       	clrc			
    5dfc:	0d 10       	rrc	r13		
    5dfe:	08 4d       	mov	r13,	r8	
    5e00:	09 43       	clr	r9		
    5e02:	0e 4a       	mov	r10,	r14	
    5e04:	0f 4b       	mov	r11,	r15	
    5e06:	4f ea       	xor.b	r10,	r15	
    5e08:	0f ea       	xor	r10,	r15	
    5e0a:	8f 10       	swpb	r15		
    5e0c:	4e 4e       	mov.b	r14,	r14	
    5e0e:	8e 10       	swpb	r14		
    5e10:	0e 5e       	rla	r14		
    5e12:	0f 6f       	rlc	r15		
    5e14:	0e 5e       	rla	r14		
    5e16:	0f 6f       	rlc	r15		
    5e18:	0e 5e       	rla	r14		
    5e1a:	0f 6f       	rlc	r15		
    5e1c:	08 de       	bis	r14,	r8	
    5e1e:	09 df       	bis	r15,	r9	
    5e20:	4f 47       	mov.b	r7,	r15	
    5e22:	b0 12 44 4e 	call	#0x4e44	
    5e26:	0e 48       	mov	r8,	r14	
    5e28:	0f 49       	mov	r9,	r15	
    5e2a:	37 41       	pop	r7		
    5e2c:	38 41       	pop	r8		
    5e2e:	39 41       	pop	r9		
    5e30:	3a 41       	pop	r10		
    5e32:	3b 41       	pop	r11		
    5e34:	30 41       	ret			

00005e36 <TransformAlarmC__0__set_alarm>:
    5e36:	0b 12       	push	r11		
    5e38:	0a 12       	push	r10		
    5e3a:	09 12       	push	r9		
    5e3c:	08 12       	push	r8		
    5e3e:	b0 12 ba 5d 	call	#0x5dba	
    5e42:	08 4e       	mov	r14,	r8	
    5e44:	09 4f       	mov	r15,	r9	
    5e46:	1e 42 bc 12 	mov	&0x12bc,r14	
    5e4a:	1f 42 be 12 	mov	&0x12be,r15	
    5e4e:	0a 4e       	mov	r14,	r10	
    5e50:	0b 4f       	mov	r15,	r11	
    5e52:	1a 52 ac 12 	add	&0x12ac,r10	
    5e56:	1b 62 ae 12 	addc	&0x12ae,r11	
    5e5a:	09 9f       	cmp	r15,	r9	
    5e5c:	09 28       	jnc	$+20     	;abs 0x5e70
    5e5e:	02 20       	jnz	$+6      	;abs 0x5e64
    5e60:	08 9e       	cmp	r14,	r8	
    5e62:	06 28       	jnc	$+14     	;abs 0x5e70
    5e64:	0b 9f       	cmp	r15,	r11	
    5e66:	10 28       	jnc	$+34     	;abs 0x5e88
    5e68:	09 20       	jnz	$+20     	;abs 0x5e7c
    5e6a:	0a 9e       	cmp	r14,	r10	
    5e6c:	0d 28       	jnc	$+28     	;abs 0x5e88
    5e6e:	06 3c       	jmp	$+14     	;abs 0x5e7c
    5e70:	0b 9f       	cmp	r15,	r11	
    5e72:	04 28       	jnc	$+10     	;abs 0x5e7c
    5e74:	0f 9b       	cmp	r11,	r15	
    5e76:	27 28       	jnc	$+80     	;abs 0x5ec6
    5e78:	0a 9e       	cmp	r14,	r10	
    5e7a:	25 2c       	jc	$+76     	;abs 0x5ec6
    5e7c:	09 9b       	cmp	r11,	r9	
    5e7e:	04 28       	jnc	$+10     	;abs 0x5e88
    5e80:	0b 99       	cmp	r9,	r11	
    5e82:	21 28       	jnc	$+68     	;abs 0x5ec6
    5e84:	08 9a       	cmp	r10,	r8	
    5e86:	1f 2c       	jc	$+64     	;abs 0x5ec6
    5e88:	0c 4a       	mov	r10,	r12	
    5e8a:	0d 4b       	mov	r11,	r13	
    5e8c:	0c 88       	sub	r8,	r12	
    5e8e:	0d 79       	subc	r9,	r13	
    5e90:	0d 93       	tst	r13		
    5e92:	03 20       	jnz	$+8      	;abs 0x5e9a
    5e94:	3c 90 01 04 	cmp	#1025,	r12	;#0x0401
    5e98:	18 28       	jnc	$+50     	;abs 0x5eca
    5e9a:	0e 48       	mov	r8,	r14	
    5e9c:	0f 49       	mov	r9,	r15	
    5e9e:	3e 50 00 04 	add	#1024,	r14	;#0x0400
    5ea2:	0f 63       	adc	r15		
    5ea4:	82 4e bc 12 	mov	r14,	&0x12bc	
    5ea8:	82 4f be 12 	mov	r15,	&0x12be	
    5eac:	0e 4c       	mov	r12,	r14	
    5eae:	0f 4d       	mov	r13,	r15	
    5eb0:	3e 50 00 fc 	add	#-1024,	r14	;#0xfc00
    5eb4:	3f 63       	addc	#-1,	r15	;r3 As==11
    5eb6:	82 4e ac 12 	mov	r14,	&0x12ac	
    5eba:	82 4f ae 12 	mov	r15,	&0x12ae	
    5ebe:	3c 40 00 04 	mov	#1024,	r12	;#0x0400
    5ec2:	0d 43       	clr	r13		
    5ec4:	0a 3c       	jmp	$+22     	;abs 0x5eda
    5ec6:	0c 43       	clr	r12		
    5ec8:	0d 43       	clr	r13		
    5eca:	82 4a bc 12 	mov	r10,	&0x12bc	
    5ece:	82 4b be 12 	mov	r11,	&0x12be	
    5ed2:	82 43 ac 12 	mov	#0,	&0x12ac	;r3 As==00
    5ed6:	82 43 ae 12 	mov	#0,	&0x12ae	;r3 As==00
    5eda:	0a 4c       	mov	r12,	r10	
    5edc:	0a 5a       	rla	r10		
    5ede:	0a 5a       	rla	r10		
    5ee0:	0a 5a       	rla	r10		
    5ee2:	0a 5a       	rla	r10		
    5ee4:	0a 5a       	rla	r10		
    5ee6:	b0 12 08 46 	call	#0x4608	
    5eea:	08 58       	rla	r8		
    5eec:	08 58       	rla	r8		
    5eee:	08 58       	rla	r8		
    5ef0:	08 58       	rla	r8		
    5ef2:	08 58       	rla	r8		
    5ef4:	0e 4f       	mov	r15,	r14	
    5ef6:	0e 88       	sub	r8,	r14	
    5ef8:	0e 9a       	cmp	r10,	r14	
    5efa:	04 2c       	jc	$+10     	;abs 0x5f04
    5efc:	0a 8e       	sub	r14,	r10	
    5efe:	3a 90 03 00 	cmp	#3,	r10	;#0x0003
    5f02:	06 2c       	jc	$+14     	;abs 0x5f10
    5f04:	b0 12 08 46 	call	#0x4608	
    5f08:	2f 53       	incd	r15		
    5f0a:	82 4f 92 01 	mov	r15,	&0x0192	
    5f0e:	03 3c       	jmp	$+8      	;abs 0x5f16
    5f10:	0a 5f       	add	r15,	r10	
    5f12:	82 4a 92 01 	mov	r10,	&0x0192	
    5f16:	b2 f0 fe ff 82 01 	and	#-2,	&0x0182	;#0xfffe
    5f1c:	b2 d0 10 00 82 01 	bis	#16,	&0x0182	;#0x0010
    5f22:	38 41       	pop	r8		
    5f24:	39 41       	pop	r9		
    5f26:	3a 41       	pop	r10		
    5f28:	3b 41       	pop	r11		
    5f2a:	30 41       	ret			

00005f2c <VirtualizeTimerC__0__Timer__startOneShot>:
    5f2c:	0b 12       	push	r11		
    5f2e:	09 12       	push	r9		
    5f30:	08 12       	push	r8		
    5f32:	4b 4f       	mov.b	r15,	r11	
    5f34:	08 4d       	mov	r13,	r8	
    5f36:	09 4e       	mov	r14,	r9	
    5f38:	b0 12 ba 5d 	call	#0x5dba	
    5f3c:	4b 4b       	mov.b	r11,	r11	
    5f3e:	0b 5b       	rla	r11		
    5f40:	0c 4b       	mov	r11,	r12	
    5f42:	0c 5c       	rla	r12		
    5f44:	0c 5c       	rla	r12		
    5f46:	0c 5b       	add	r11,	r12	
    5f48:	3c 50 a8 13 	add	#5032,	r12	;#0x13a8
    5f4c:	8c 4e 00 00 	mov	r14,	0(r12)	;0x0000(r12)
    5f50:	8c 4f 02 00 	mov	r15,	2(r12)	;0x0002(r12)
    5f54:	8c 48 04 00 	mov	r8,	4(r12)	;0x0004(r12)
    5f58:	8c 49 06 00 	mov	r9,	6(r12)	;0x0006(r12)
    5f5c:	fc d0 03 00 08 00 	bis.b	#3,	8(r12)	;#0x0003, 0x0008(r12)
    5f62:	5f 43       	mov.b	#1,	r15	;r3 As==01
    5f64:	b0 12 4c 4e 	call	#0x4e4c	
    5f68:	38 41       	pop	r8		
    5f6a:	39 41       	pop	r9		
    5f6c:	3b 41       	pop	r11		
    5f6e:	30 41       	ret			

00005f70 <EndDeviceC__sendFrame>:
    5f70:	0b 12       	push	r11		
    5f72:	0a 12       	push	r10		
    5f74:	09 12       	push	r9		
    5f76:	31 50 f6 ff 	add	#-10,	r1	;#0xfff6
    5f7a:	5b 42 06 12 	mov.b	&0x1206,r11	
    5f7e:	5f 42 05 12 	mov.b	&0x1205,r15	
    5f82:	3f b2       	bit	#8,	r15	;r2 As==11
    5f84:	04 20       	jnz	$+10     	;abs 0x5f8e
    5f86:	0d 41       	mov	r1,	r13	
    5f88:	4e 4b       	mov.b	r11,	r14	
    5f8a:	b0 12 fc 4b 	call	#0x4bfc	
    5f8e:	69 41       	mov.b	@r1,	r9	
    5f90:	4f 49       	mov.b	r9,	r15	
    5f92:	3f 90 7a 00 	cmp	#122,	r15	;#0x007a
    5f96:	82 34       	jge	$+262    	;abs 0x609c
    5f98:	4f 4b       	mov.b	r11,	r15	
    5f9a:	7e 40 06 00 	mov.b	#6,	r14	;#0x0006
    5f9e:	12 c3       	clrc			
    5fa0:	4f 10       	rrc.b	r15		
    5fa2:	7e 53       	add.b	#-1,	r14	;r3 As==11
    5fa4:	fc 23       	jnz	$-6      	;abs 0x5f9e
    5fa6:	0e 4b       	mov	r11,	r14	
    5fa8:	3e f0 0c 00 	and	#12,	r14	;#0x000c
    5fac:	0e 11       	rra	r14		
    5fae:	0e 11       	rra	r14		
    5fb0:	4a 4e       	mov.b	r14,	r10	
    5fb2:	4f 93       	tst.b	r15		
    5fb4:	03 20       	jnz	$+8      	;abs 0x5fbc
    5fb6:	4a 93       	tst.b	r10		
    5fb8:	71 24       	jz	$+228    	;abs 0x609c
    5fba:	04 3c       	jmp	$+10     	;abs 0x5fc4
    5fbc:	6f 92       	cmp.b	#4,	r15	;r2 As==10
    5fbe:	6e 2c       	jc	$+222    	;abs 0x609c
    5fc0:	5f 93       	cmp.b	#1,	r15	;r3 As==01
    5fc2:	6c 24       	jz	$+218    	;abs 0x609c
    5fc4:	5a 93       	cmp.b	#1,	r10	;r3 As==01
    5fc6:	6a 24       	jz	$+214    	;abs 0x609c
    5fc8:	b0 12 d6 47 	call	#0x47d6	
    5fcc:	0b 4f       	mov	r15,	r11	
    5fce:	0f 93       	tst	r15		
    5fd0:	65 24       	jz	$+204    	;abs 0x609c
    5fd2:	bf 40 04 12 00 00 	mov	#4612,	0(r15)	;#0x1204, 0x0000(r15)
    5fd8:	bf 40 1e 12 02 00 	mov	#4638,	2(r15)	;#0x121e, 0x0002(r15)
    5fde:	bf 40 94 12 04 00 	mov	#4756,	4(r15)	;#0x1294, 0x0004(r15)
    5fe4:	ef 42 07 00 	mov.b	#4,	7(r15)	;r2 As==10, 0x0007(r15)
    5fe8:	cf 49 06 00 	mov.b	r9,	6(r15)	;0x0006(r15)
    5fec:	5f 42 05 12 	mov.b	&0x1205,r15	
    5ff0:	7f f0 c8 ff 	and.b	#-56,	r15	;#0xffc8
    5ff4:	7f d0 21 00 	bis.b	#33,	r15	;#0x0021
    5ff8:	c2 4f 05 12 	mov.b	r15,	&0x1205	
    5ffc:	5f 42 06 12 	mov.b	&0x1206,r15	
    6000:	7f f0 cf ff 	and.b	#-49,	r15	;#0xffcf
    6004:	c2 4f 06 12 	mov.b	r15,	&0x1206	
    6008:	cb 43 09 00 	mov.b	#0,	9(r11)	;r3 As==00, 0x0009(r11)
    600c:	4f 4f       	mov.b	r15,	r15	
    600e:	3f b2       	bit	#8,	r15	;r2 As==11
    6010:	13 24       	jz	$+40     	;abs 0x6038
    6012:	3f f0 0c 00 	and	#12,	r15	;#0x000c
    6016:	3f 92       	cmp	#8,	r15	;r2 As==11
    6018:	09 20       	jnz	$+20     	;abs 0x602c
    601a:	5f 42 0b 12 	mov.b	&0x120b,r15	
    601e:	8f 10       	swpb	r15		
    6020:	5e 42 0a 12 	mov.b	&0x120a,r14	
    6024:	0f de       	bis	r14,	r15	
    6026:	81 4f 02 00 	mov	r15,	2(r1)	;0x0002(r1)
    602a:	06 3c       	jmp	$+14     	;abs 0x6038
    602c:	3e 40 0a 12 	mov	#4618,	r14	;#0x120a
    6030:	0f 41       	mov	r1,	r15	
    6032:	2f 53       	incd	r15		
    6034:	b0 12 f4 46 	call	#0x46f4	
    6038:	6a 93       	cmp.b	#2,	r10	;r3 As==10
    603a:	05 20       	jnz	$+12     	;abs 0x6046
    603c:	91 92 e8 11 02 00 	cmp	&0x11e8,2(r1)	;0x0002(r1)
    6042:	21 20       	jnz	$+68     	;abs 0x6086
    6044:	16 3c       	jmp	$+46     	;abs 0x6072
    6046:	7a 90 03 00 	cmp.b	#3,	r10	;#0x0003
    604a:	11 20       	jnz	$+36     	;abs 0x606e
    604c:	91 92 f8 11 02 00 	cmp	&0x11f8,2(r1)	;0x0002(r1)
    6052:	19 20       	jnz	$+52     	;abs 0x6086
    6054:	91 92 fa 11 04 00 	cmp	&0x11fa,4(r1)	;0x0004(r1)
    605a:	15 20       	jnz	$+44     	;abs 0x6086
    605c:	91 92 fc 11 06 00 	cmp	&0x11fc,6(r1)	;0x0006(r1)
    6062:	11 20       	jnz	$+36     	;abs 0x6086
    6064:	91 92 fe 11 08 00 	cmp	&0x11fe,8(r1)	;0x0008(r1)
    606a:	0d 20       	jnz	$+28     	;abs 0x6086
    606c:	02 3c       	jmp	$+6      	;abs 0x6072
    606e:	4a 93       	tst.b	r10		
    6070:	0a 20       	jnz	$+22     	;abs 0x6086
    6072:	0e 4b       	mov	r11,	r14	
    6074:	6f 42       	mov.b	#4,	r15	;r2 As==10
    6076:	b0 12 2c 50 	call	#0x502c	
    607a:	0f 93       	tst	r15		
    607c:	08 24       	jz	$+18     	;abs 0x608e
    607e:	0f 4b       	mov	r11,	r15	
    6080:	b0 12 d2 4b 	call	#0x4bd2	
    6084:	0b 3c       	jmp	$+24     	;abs 0x609c
    6086:	0e 4b       	mov	r11,	r14	
    6088:	7f 40 05 00 	mov.b	#5,	r15	;#0x0005
    608c:	f4 3f       	jmp	$-22     	;abs 0x6076
    608e:	b0 12 32 4e 	call	#0x4e32	
    6092:	f2 e0 40 00 31 00 	xor.b	#64,	&0x0031	;#0x0040
    6098:	b0 12 44 4e 	call	#0x4e44	
    609c:	31 50 0a 00 	add	#10,	r1	;#0x000a
    60a0:	39 41       	pop	r9		
    60a2:	3a 41       	pop	r10		
    60a4:	3b 41       	pop	r11		
    60a6:	30 41       	ret			

000060a8 <DataP__finishTxTransaction>:
    60a8:	0b 12       	push	r11		
    60aa:	0b 4e       	mov	r14,	r11	
    60ac:	b0 12 d2 4b 	call	#0x4bd2	
    60b0:	0b 93       	tst	r11		
    60b2:	03 20       	jnz	$+8      	;abs 0x60ba
    60b4:	b0 12 aa 5d 	call	#0x5daa	
    60b8:	02 3c       	jmp	$+6      	;abs 0x60be
    60ba:	b0 12 70 5f 	call	#0x5f70	
    60be:	3b 41       	pop	r11		
    60c0:	30 41       	ret			

000060c2 <ArbiterP__1__Resource__release>:
    60c2:	0b 12       	push	r11		
    60c4:	0a 12       	push	r10		
    60c6:	4a 4f       	mov.b	r15,	r10	
    60c8:	b0 12 32 4e 	call	#0x4e32	
    60cc:	4b 4f       	mov.b	r15,	r11	
    60ce:	f2 90 03 00 16 11 	cmp.b	#3,	&0x1116	;#0x0003
    60d4:	2b 20       	jnz	$+88     	;abs 0x612c
    60d6:	c2 9a 00 11 	cmp.b	r10,	&0x1100	
    60da:	28 20       	jnz	$+82     	;abs 0x612c
    60dc:	5d 42 02 11 	mov.b	&0x1102,r13	
    60e0:	7d 93       	cmp.b	#-1,	r13	;r3 As==11
    60e2:	15 24       	jz	$+44     	;abs 0x610e
    60e4:	4e 4d       	mov.b	r13,	r14	
    60e6:	3e 50 b6 12 	add	#4790,	r14	;#0x12b6
    60ea:	6f 4e       	mov.b	@r14,	r15	
    60ec:	c2 4f 02 11 	mov.b	r15,	&0x1102	
    60f0:	7f 93       	cmp.b	#-1,	r15	;r3 As==11
    60f2:	02 20       	jnz	$+6      	;abs 0x60f8
    60f4:	f2 43 01 11 	mov.b	#-1,	&0x1101	;r3 As==11
    60f8:	fe 43 00 00 	mov.b	#-1,	0(r14)	;r3 As==11, 0x0000(r14)
    60fc:	c2 4d 02 12 	mov.b	r13,	&0x1202	
    6100:	f2 43 00 11 	mov.b	#-1,	&0x1100	;r3 As==11
    6104:	d2 43 16 11 	mov.b	#1,	&0x1116	;r3 As==01
    6108:	7f 40 1f 00 	mov.b	#31,	r15	;#0x001f
    610c:	08 3c       	jmp	$+18     	;abs 0x611e
    610e:	e2 43 00 11 	mov.b	#2,	&0x1100	;r3 As==10
    6112:	c2 43 16 11 	mov.b	#0,	&0x1116	;r3 As==00
    6116:	d2 43 14 11 	mov.b	#1,	&0x1114	;r3 As==01
    611a:	7f 40 21 00 	mov.b	#33,	r15	;#0x0021
    611e:	b0 12 4c 4e 	call	#0x4e4c	
    6122:	4f 4b       	mov.b	r11,	r15	
    6124:	b0 12 44 4e 	call	#0x4e44	
    6128:	4f 43       	clr.b	r15		
    612a:	04 3c       	jmp	$+10     	;abs 0x6134
    612c:	4f 4b       	mov.b	r11,	r15	
    612e:	b0 12 44 4e 	call	#0x4e44	
    6132:	5f 43       	mov.b	#1,	r15	;r3 As==01
    6134:	3a 41       	pop	r10		
    6136:	3b 41       	pop	r11		
    6138:	30 41       	ret			

0000613a <SensirionSht11LogicP__0__SensirionSht11__measureTemperatureDone.isra.213.part.214>:
    613a:	0b 12       	push	r11		
    613c:	0b 4f       	mov	r15,	r11	
    613e:	4f 43       	clr.b	r15		
    6140:	b0 12 c2 60 	call	#0x60c2	
    6144:	1f 42 10 11 	mov	&0x1110,r15	
    6148:	3e 40 1f 12 	mov	#4639,	r14	;#0x121f
    614c:	ce 4f 00 00 	mov.b	r15,	0(r14)	;0x0000(r14)
    6150:	8f 10       	swpb	r15		
    6152:	ce 4f ff ff 	mov.b	r15,	-1(r14)	;0xffff(r14)
    6156:	ce 4b 02 00 	mov.b	r11,	2(r14)	;0x0002(r14)
    615a:	8b 10       	swpb	r11		
    615c:	ce 4b 01 00 	mov.b	r11,	1(r14)	;0x0001(r14)
    6160:	3b 41       	pop	r11		
    6162:	30 41       	ret			

00006164 <VirtualizeTimerC__0__fireTimers>:
    6164:	0b 12       	push	r11		
    6166:	0a 12       	push	r10		
    6168:	09 12       	push	r9		
    616a:	08 12       	push	r8		
    616c:	07 12       	push	r7		
    616e:	06 12       	push	r6		
    6170:	05 12       	push	r5		
    6172:	06 4e       	mov	r14,	r6	
    6174:	07 4f       	mov	r15,	r7	
    6176:	05 43       	clr	r5		
    6178:	0e 45       	mov	r5,	r14	
    617a:	0e 5e       	rla	r14		
    617c:	0f 4e       	mov	r14,	r15	
    617e:	0f 5f       	rla	r15		
    6180:	0f 5f       	rla	r15		
    6182:	0f 5e       	add	r14,	r15	
    6184:	3f 50 a8 13 	add	#5032,	r15	;#0x13a8
    6188:	5e 4f 08 00 	mov.b	8(r15),	r14	;0x0008(r15)
    618c:	6e b3       	bit.b	#2,	r14	;r3 As==10
    618e:	aa 24       	jz	$+342    	;abs 0x62e4
    6190:	2a 4f       	mov	@r15,	r10	
    6192:	1b 4f 02 00 	mov	2(r15),	r11	;0x0002(r15)
    6196:	1c 4f 04 00 	mov	4(r15),	r12	;0x0004(r15)
    619a:	1d 4f 06 00 	mov	6(r15),	r13	;0x0006(r15)
    619e:	08 46       	mov	r6,	r8	
    61a0:	09 47       	mov	r7,	r9	
    61a2:	08 8a       	sub	r10,	r8	
    61a4:	09 7b       	subc	r11,	r9	
    61a6:	09 9d       	cmp	r13,	r9	
    61a8:	9d 28       	jnc	$+316    	;abs 0x62e4
    61aa:	02 20       	jnz	$+6      	;abs 0x61b0
    61ac:	08 9c       	cmp	r12,	r8	
    61ae:	9a 28       	jnc	$+310    	;abs 0x62e4
    61b0:	5e f3       	and.b	#1,	r14	;r3 As==01
    61b2:	04 24       	jz	$+10     	;abs 0x61bc
    61b4:	ff f0 fd ff 08 00 	and.b	#-3,	8(r15)	;#0xfffd, 0x0008(r15)
    61ba:	08 3c       	jmp	$+18     	;abs 0x61cc
    61bc:	08 4c       	mov	r12,	r8	
    61be:	09 4d       	mov	r13,	r9	
    61c0:	08 5a       	add	r10,	r8	
    61c2:	09 6b       	addc	r11,	r9	
    61c4:	8f 48 00 00 	mov	r8,	0(r15)	;0x0000(r15)
    61c8:	8f 49 02 00 	mov	r9,	2(r15)	;0x0002(r15)
    61cc:	55 93       	cmp.b	#1,	r5	;r3 As==01
    61ce:	38 24       	jz	$+114    	;abs 0x6240
    61d0:	65 93       	cmp.b	#2,	r5	;r3 As==10
    61d2:	67 24       	jz	$+208    	;abs 0x62a2
    61d4:	b0 12 32 4e 	call	#0x4e32	
    61d8:	4d 4f       	mov.b	r15,	r13	
    61da:	c2 93 16 11 	tst.b	&0x1116	
    61de:	11 20       	jnz	$+36     	;abs 0x6202
    61e0:	d2 43 16 11 	mov.b	#1,	&0x1116	;r3 As==01
    61e4:	c2 43 02 12 	mov.b	#0,	&0x1202	;r3 As==00
    61e8:	b0 12 44 4e 	call	#0x4e44	
    61ec:	c2 93 14 11 	tst.b	&0x1114	
    61f0:	05 20       	jnz	$+12     	;abs 0x61fc
    61f2:	7f 40 20 00 	mov.b	#32,	r15	;#0x0020
    61f6:	b0 12 4c 4e 	call	#0x4e4c	
    61fa:	1f 3c       	jmp	$+64     	;abs 0x623a
    61fc:	d2 43 12 11 	mov.b	#1,	&0x1112	;r3 As==01
    6200:	1c 3c       	jmp	$+58     	;abs 0x623a
    6202:	c2 93 02 12 	tst.b	&0x1202	
    6206:	17 24       	jz	$+48     	;abs 0x6236
    6208:	1e 43       	mov	#1,	r14	;r3 As==01
    620a:	f2 93 b6 12 	cmp.b	#-1,	&0x12b6	;r3 As==11
    620e:	04 20       	jnz	$+10     	;abs 0x6218
    6210:	c2 93 01 11 	tst.b	&0x1101	
    6214:	01 24       	jz	$+4      	;abs 0x6218
    6216:	0e 43       	clr	r14		
    6218:	0e 93       	tst	r14		
    621a:	0c 20       	jnz	$+26     	;abs 0x6234
    621c:	f2 93 02 11 	cmp.b	#-1,	&0x1102	;r3 As==11
    6220:	03 20       	jnz	$+8      	;abs 0x6228
    6222:	c2 43 02 11 	mov.b	#0,	&0x1102	;r3 As==00
    6226:	04 3c       	jmp	$+10     	;abs 0x6230
    6228:	5f 42 01 11 	mov.b	&0x1101,r15	
    622c:	cf 43 b6 12 	mov.b	#0,	4790(r15);r3 As==00, 0x12b6(r15)
    6230:	c2 43 01 11 	mov.b	#0,	&0x1101	;r3 As==00
    6234:	4f 4d       	mov.b	r13,	r15	
    6236:	b0 12 44 4e 	call	#0x4e44	
    623a:	b0 12 70 5f 	call	#0x5f70	
    623e:	56 3c       	jmp	$+174    	;abs 0x62ec
    6240:	b0 12 32 4e 	call	#0x4e32	
    6244:	5e 42 16 11 	mov.b	&0x1116,r14	
    6248:	4e 93       	tst.b	r14		
    624a:	08 24       	jz	$+18     	;abs 0x625c
    624c:	e2 93 00 11 	cmp.b	#2,	&0x1100	;r3 As==10
    6250:	07 20       	jnz	$+16     	;abs 0x6260
    6252:	7e 53       	add.b	#-1,	r14	;r3 As==11
    6254:	1a 43       	mov	#1,	r10	;r3 As==01
    6256:	6e 93       	cmp.b	#2,	r14	;r3 As==10
    6258:	04 28       	jnc	$+10     	;abs 0x6262
    625a:	02 3c       	jmp	$+6      	;abs 0x6260
    625c:	1a 43       	mov	#1,	r10	;r3 As==01
    625e:	01 3c       	jmp	$+4      	;abs 0x6262
    6260:	0a 43       	clr	r10		
    6262:	b0 12 44 4e 	call	#0x4e44	
    6266:	4a 93       	tst.b	r10		
    6268:	41 24       	jz	$+132    	;abs 0x62ec
    626a:	b0 12 32 4e 	call	#0x4e32	
    626e:	4a 4f       	mov.b	r15,	r10	
    6270:	e2 93 00 11 	cmp.b	#2,	&0x1100	;r3 As==10
    6274:	12 20       	jnz	$+38     	;abs 0x629a
    6276:	5e 42 16 11 	mov.b	&0x1116,r14	
    627a:	5e 93       	cmp.b	#1,	r14	;r3 As==01
    627c:	05 20       	jnz	$+12     	;abs 0x6288
    627e:	7f 40 1f 00 	mov.b	#31,	r15	;#0x001f
    6282:	b0 12 4c 4e 	call	#0x4e4c	
    6286:	09 3c       	jmp	$+20     	;abs 0x629a
    6288:	6e 93       	cmp.b	#2,	r14	;r3 As==10
    628a:	07 20       	jnz	$+16     	;abs 0x629a
    628c:	d2 42 02 12 00 11 	mov.b	&0x1202,&0x1100	
    6292:	f2 40 03 00 16 11 	mov.b	#3,	&0x1116	;#0x0003
    6298:	01 3c       	jmp	$+4      	;abs 0x629c
    629a:	4f 4a       	mov.b	r10,	r15	
    629c:	b0 12 44 4e 	call	#0x4e44	
    62a0:	25 3c       	jmp	$+76     	;abs 0x62ec
    62a2:	1f 42 64 11 	mov	&0x1164,r15	
    62a6:	3f 90 05 00 	cmp	#5,	r15	;#0x0005
    62aa:	13 24       	jz	$+40     	;abs 0x62d2
    62ac:	3f 90 1e 00 	cmp	#30,	r15	;#0x001e
    62b0:	04 24       	jz	$+10     	;abs 0x62ba
    62b2:	3f 90 03 00 	cmp	#3,	r15	;#0x0003
    62b6:	1a 20       	jnz	$+54     	;abs 0x62ec
    62b8:	03 3c       	jmp	$+8      	;abs 0x62c0
    62ba:	c2 43 1c 11 	mov.b	#0,	&0x111c	;r3 As==00
    62be:	16 3c       	jmp	$+46     	;abs 0x62ec
    62c0:	c2 43 1c 11 	mov.b	#0,	&0x111c	;r3 As==00
    62c4:	c2 93 86 15 	tst.b	&0x1586	
    62c8:	11 20       	jnz	$+36     	;abs 0x62ec
    62ca:	0f 43       	clr	r15		
    62cc:	b0 12 3a 61 	call	#0x613a	
    62d0:	0d 3c       	jmp	$+28     	;abs 0x62ec
    62d2:	c2 43 1c 11 	mov.b	#0,	&0x111c	;r3 As==00
    62d6:	d2 93 86 15 	cmp.b	#1,	&0x1586	;r3 As==01
    62da:	08 20       	jnz	$+18     	;abs 0x62ec
    62dc:	5f 43       	mov.b	#1,	r15	;r3 As==01
    62de:	b0 12 c2 60 	call	#0x60c2	
    62e2:	04 3c       	jmp	$+10     	;abs 0x62ec
    62e4:	15 53       	inc	r5		
    62e6:	35 90 03 00 	cmp	#3,	r5	;#0x0003
    62ea:	46 23       	jnz	$-370    	;abs 0x6178
    62ec:	5f 43       	mov.b	#1,	r15	;r3 As==01
    62ee:	b0 12 4c 4e 	call	#0x4e4c	
    62f2:	35 41       	pop	r5		
    62f4:	36 41       	pop	r6		
    62f6:	37 41       	pop	r7		
    62f8:	38 41       	pop	r8		
    62fa:	39 41       	pop	r9		
    62fc:	3a 41       	pop	r10		
    62fe:	3b 41       	pop	r11		
    6300:	30 41       	ret			

00006302 <CC2420TKN154P__PIBUpdate__notify>:
    6302:	0b 12       	push	r11		
    6304:	7f 90 03 00 	cmp.b	#3,	r15	;#0x0003
    6308:	6a 24       	jz	$+214    	;abs 0x63de
    630a:	6f 92       	cmp.b	#4,	r15	;r2 As==10
    630c:	05 2c       	jc	$+12     	;abs 0x6318
    630e:	4f 93       	tst.b	r15		
    6310:	1d 24       	jz	$+60     	;abs 0x634c
    6312:	6f 93       	cmp.b	#2,	r15	;r3 As==10
    6314:	6d 20       	jnz	$+220    	;abs 0x63f0
    6316:	2a 3c       	jmp	$+86     	;abs 0x636c
    6318:	7f 90 53 00 	cmp.b	#83,	r15	;#0x0053
    631c:	07 24       	jz	$+16     	;abs 0x632c
    631e:	7f 90 f0 ff 	cmp.b	#-16,	r15	;#0xfff0
    6322:	1c 24       	jz	$+58     	;abs 0x635c
    6324:	7f 90 50 00 	cmp.b	#80,	r15	;#0x0050
    6328:	63 20       	jnz	$+200    	;abs 0x63f0
    632a:	08 3c       	jmp	$+18     	;abs 0x633c
    632c:	2b 4e       	mov	@r14,	r11	
    632e:	b0 12 32 4e 	call	#0x4e32	
    6332:	d2 43 f2 14 	mov.b	#1,	&0x14f2	;r3 As==01
    6336:	82 4b c0 12 	mov	r11,	&0x12c0	
    633a:	58 3c       	jmp	$+178    	;abs 0x63ec
    633c:	2b 4e       	mov	@r14,	r11	
    633e:	b0 12 32 4e 	call	#0x4e32	
    6342:	d2 43 f2 14 	mov.b	#1,	&0x14f2	;r3 As==01
    6346:	82 4b 00 12 	mov	r11,	&0x1200	
    634a:	50 3c       	jmp	$+162    	;abs 0x63ec
    634c:	6b 4e       	mov.b	@r14,	r11	
    634e:	b0 12 32 4e 	call	#0x4e32	
    6352:	d2 43 f2 14 	mov.b	#1,	&0x14f2	;r3 As==01
    6356:	c2 4b fa 14 	mov.b	r11,	&0x14fa	
    635a:	48 3c       	jmp	$+146    	;abs 0x63ec
    635c:	6b 4e       	mov.b	@r14,	r11	
    635e:	b0 12 32 4e 	call	#0x4e32	
    6362:	d2 43 f2 14 	mov.b	#1,	&0x14f2	;r3 As==01
    6366:	c2 4b 7c 11 	mov.b	r11,	&0x117c	
    636a:	40 3c       	jmp	$+130    	;abs 0x63ec
    636c:	6f 4e       	mov.b	@r14,	r15	
    636e:	7f f0 3f 00 	and.b	#63,	r15	;#0x003f
    6372:	3f b0 20 00 	bit	#32,	r15	;#0x0020
    6376:	02 24       	jz	$+6      	;abs 0x637c
    6378:	7f d0 c0 ff 	bis.b	#-64,	r15	;#0xffc0
    637c:	8f 11       	sxt	r15		
    637e:	14 34       	jge	$+42     	;abs 0x63a8
    6380:	3f 93       	cmp	#-1,	r15	;r3 As==11
    6382:	15 24       	jz	$+44     	;abs 0x63ae
    6384:	3f 90 fd ff 	cmp	#-3,	r15	;#0xfffd
    6388:	15 34       	jge	$+44     	;abs 0x63b4
    638a:	3f 90 fb ff 	cmp	#-5,	r15	;#0xfffb
    638e:	15 34       	jge	$+44     	;abs 0x63ba
    6390:	3f 90 f8 ff 	cmp	#-8,	r15	;#0xfff8
    6394:	15 34       	jge	$+44     	;abs 0x63c0
    6396:	3f 90 f4 ff 	cmp	#-12,	r15	;#0xfff4
    639a:	15 34       	jge	$+44     	;abs 0x63c6
    639c:	3f 90 ed ff 	cmp	#-19,	r15	;#0xffed
    63a0:	15 38       	jl	$+44     	;abs 0x63cc
    63a2:	7b 40 07 00 	mov.b	#7,	r11	;#0x0007
    63a6:	14 3c       	jmp	$+42     	;abs 0x63d0
    63a8:	7b 40 1f 00 	mov.b	#31,	r11	;#0x001f
    63ac:	11 3c       	jmp	$+36     	;abs 0x63d0
    63ae:	7b 40 1b 00 	mov.b	#27,	r11	;#0x001b
    63b2:	0e 3c       	jmp	$+30     	;abs 0x63d0
    63b4:	7b 40 17 00 	mov.b	#23,	r11	;#0x0017
    63b8:	0b 3c       	jmp	$+24     	;abs 0x63d0
    63ba:	7b 40 13 00 	mov.b	#19,	r11	;#0x0013
    63be:	08 3c       	jmp	$+18     	;abs 0x63d0
    63c0:	7b 40 0f 00 	mov.b	#15,	r11	;#0x000f
    63c4:	05 3c       	jmp	$+12     	;abs 0x63d0
    63c6:	7b 40 0b 00 	mov.b	#11,	r11	;#0x000b
    63ca:	02 3c       	jmp	$+6      	;abs 0x63d0
    63cc:	7b 40 03 00 	mov.b	#3,	r11	;#0x0003
    63d0:	b0 12 32 4e 	call	#0x4e32	
    63d4:	d2 43 f2 14 	mov.b	#1,	&0x14f2	;r3 As==01
    63d8:	c2 4b 9e 12 	mov.b	r11,	&0x129e	
    63dc:	07 3c       	jmp	$+16     	;abs 0x63ec
    63de:	6b 4e       	mov.b	@r14,	r11	
    63e0:	b0 12 32 4e 	call	#0x4e32	
    63e4:	d2 43 f2 14 	mov.b	#1,	&0x14f2	;r3 As==01
    63e8:	c2 4b 82 15 	mov.b	r11,	&0x1582	
    63ec:	b0 12 44 4e 	call	#0x4e44	
    63f0:	1f 42 2a 11 	mov	&0x112a,r15	
    63f4:	3f 50 fa ff 	add	#-6,	r15	;#0xfffa
    63f8:	2f 93       	cmp	#2,	r15	;r3 As==10
    63fa:	04 2c       	jc	$+10     	;abs 0x6404
    63fc:	7f 40 14 00 	mov.b	#20,	r15	;#0x0014
    6400:	b0 12 4c 4e 	call	#0x4e4c	
    6404:	3b 41       	pop	r11		
    6406:	30 41       	ret			

00006408 <AssociateP__MLME_ASSOCIATE__confirm.isra.221.part.222>:
    6408:	b0 12 32 4e 	call	#0x4e32	
    640c:	f2 f0 df ff 31 00 	and.b	#-33,	&0x0031	;#0xffdf
    6412:	b0 12 44 4e 	call	#0x4e44	
    6416:	b0 12 ba 5d 	call	#0x5dba	
    641a:	3d 40 a8 13 	mov	#5032,	r13	;#0x13a8
    641e:	8d 4e 00 00 	mov	r14,	0(r13)	;0x0000(r13)
    6422:	8d 4f 02 00 	mov	r15,	2(r13)	;0x0002(r13)
    6426:	bd 40 88 13 04 00 	mov	#5000,	4(r13)	;#0x1388, 0x0004(r13)
    642c:	8d 43 06 00 	mov	#0,	6(r13)	;r3 As==00, 0x0006(r13)
    6430:	5f 4d 08 00 	mov.b	8(r13),	r15	;0x0008(r13)
    6434:	7f f0 fc ff 	and.b	#-4,	r15	;#0xfffc
    6438:	6f d3       	bis.b	#2,	r15	;r3 As==10
    643a:	cd 4f 08 00 	mov.b	r15,	8(r13)	;0x0008(r13)
    643e:	5f 43       	mov.b	#1,	r15	;r3 As==01
    6440:	b0 12 4c 4e 	call	#0x4e4c	
    6444:	30 41       	ret			

00006446 <PromiscuousModeP__RadioPromiscuousMode__set>:
    6446:	0b 12       	push	r11		
    6448:	4b 4f       	mov.b	r15,	r11	
    644a:	b0 12 32 4e 	call	#0x4e32	
    644e:	d2 43 f2 14 	mov.b	#1,	&0x14f2	;r3 As==01
    6452:	4b 93       	tst.b	r11		
    6454:	07 24       	jz	$+16     	;abs 0x6464
    6456:	c2 43 b4 11 	mov.b	#0,	&0x11b4	;r3 As==00
    645a:	d2 43 68 13 	mov.b	#1,	&0x1368	;r3 As==01
    645e:	c2 43 9f 12 	mov.b	#0,	&0x129f	;r3 As==00
    6462:	06 3c       	jmp	$+14     	;abs 0x6470
    6464:	d2 43 b4 11 	mov.b	#1,	&0x11b4	;r3 As==01
    6468:	c2 43 68 13 	mov.b	#0,	&0x1368	;r3 As==00
    646c:	d2 43 9f 12 	mov.b	#1,	&0x129f	;r3 As==01
    6470:	b0 12 44 4e 	call	#0x4e44	
    6474:	3b 41       	pop	r11		
    6476:	30 41       	ret			

00006478 <CC2420TKN154P__CC2420Power__rssi>:
    6478:	0b 12       	push	r11		
    647a:	0a 12       	push	r10		
    647c:	09 12       	push	r9		
    647e:	08 12       	push	r8		
    6480:	09 4f       	mov	r15,	r9	
    6482:	b0 12 32 4e 	call	#0x4e32	
    6486:	4a 4f       	mov.b	r15,	r10	
    6488:	b0 12 96 50 	call	#0x5096	
    648c:	4f 93       	tst.b	r15		
    648e:	23 24       	jz	$+72     	;abs 0x64d6
    6490:	b0 12 ba 45 	call	#0x45ba	
    6494:	b0 12 c0 45 	call	#0x45c0	
    6498:	c2 93 cd 14 	tst.b	&0x14cd	
    649c:	10 24       	jz	$+34     	;abs 0x64be
    649e:	7f 40 53 00 	mov.b	#83,	r15	;#0x0053
    64a2:	b0 12 92 45 	call	#0x4592	
    64a6:	48 4f       	mov.b	r15,	r8	
    64a8:	4f 43       	clr.b	r15		
    64aa:	b0 12 92 45 	call	#0x4592	
    64ae:	4b 4f       	mov.b	r15,	r11	
    64b0:	8b 10       	swpb	r11		
    64b2:	4f 43       	clr.b	r15		
    64b4:	b0 12 92 45 	call	#0x4592	
    64b8:	4e 4f       	mov.b	r15,	r14	
    64ba:	0b de       	bis	r14,	r11	
    64bc:	01 3c       	jmp	$+4      	;abs 0x64c0
    64be:	48 43       	clr.b	r8		
    64c0:	b0 12 ba 45 	call	#0x45ba	
    64c4:	28 f3       	and	#2,	r8	;r3 As==10
    64c6:	07 24       	jz	$+16     	;abs 0x64d6
    64c8:	c9 4b 00 00 	mov.b	r11,	0(r9)	;0x0000(r9)
    64cc:	4f 4a       	mov.b	r10,	r15	
    64ce:	b0 12 44 4e 	call	#0x4e44	
    64d2:	4f 43       	clr.b	r15		
    64d4:	04 3c       	jmp	$+10     	;abs 0x64de
    64d6:	4f 4a       	mov.b	r10,	r15	
    64d8:	b0 12 44 4e 	call	#0x4e44	
    64dc:	5f 43       	mov.b	#1,	r15	;r3 As==01
    64de:	38 41       	pop	r8		
    64e0:	39 41       	pop	r9		
    64e2:	3a 41       	pop	r10		
    64e4:	3b 41       	pop	r11		
    64e6:	30 41       	ret			

000064e8 <VirtualizeAlarmC__0__Alarm__start>:
    64e8:	0b 12       	push	r11		
    64ea:	0a 12       	push	r10		
    64ec:	09 12       	push	r9		
    64ee:	08 12       	push	r8		
    64f0:	07 12       	push	r7		
    64f2:	06 12       	push	r6		
    64f4:	46 4f       	mov.b	r15,	r6	
    64f6:	0a 4d       	mov	r13,	r10	
    64f8:	0b 4e       	mov	r14,	r11	
    64fa:	b0 12 aa 53 	call	#0x53aa	
    64fe:	08 4e       	mov	r14,	r8	
    6500:	09 4f       	mov	r15,	r9	
    6502:	b0 12 32 4e 	call	#0x4e32	
    6506:	47 4f       	mov.b	r15,	r7	
    6508:	4e 46       	mov.b	r6,	r14	
    650a:	0c 4e       	mov	r14,	r12	
    650c:	0c 5c       	rla	r12		
    650e:	0c 5c       	rla	r12		
    6510:	0c 5c       	rla	r12		
    6512:	3c 50 d6 14 	add	#5334,	r12	;#0x14d6
    6516:	8c 48 00 00 	mov	r8,	0(r12)	;0x0000(r12)
    651a:	8c 49 02 00 	mov	r9,	2(r12)	;0x0002(r12)
    651e:	8c 4a 04 00 	mov	r10,	4(r12)	;0x0004(r12)
    6522:	8c 4b 06 00 	mov	r11,	6(r12)	;0x0006(r12)
    6526:	de 43 ee 14 	mov.b	#1,	5358(r14);r3 As==01, 0x14ee(r14)
    652a:	c2 93 f1 14 	tst.b	&0x14f1	
    652e:	02 20       	jnz	$+6      	;abs 0x6534
    6530:	b0 12 3a 55 	call	#0x553a	
    6534:	4f 47       	mov.b	r7,	r15	
    6536:	b0 12 44 4e 	call	#0x4e44	
    653a:	36 41       	pop	r6		
    653c:	37 41       	pop	r7		
    653e:	38 41       	pop	r8		
    6540:	39 41       	pop	r9		
    6542:	3a 41       	pop	r10		
    6544:	3b 41       	pop	r11		
    6546:	30 41       	ret			

00006548 <Alarm32khzTo62500hzTransformC__Alarm__start>:
    6548:	12 c3       	clrc			
    654a:	0e 10       	rrc	r14		
    654c:	0d 10       	rrc	r13		
    654e:	5f 93       	cmp.b	#1,	r15	;r3 As==01
    6550:	05 24       	jz	$+12     	;abs 0x655c
    6552:	03 28       	jnc	$+8      	;abs 0x655a
    6554:	6f 93       	cmp.b	#2,	r15	;r3 As==10
    6556:	07 20       	jnz	$+16     	;abs 0x6566
    6558:	04 3c       	jmp	$+10     	;abs 0x6562
    655a:	4f 43       	clr.b	r15		
    655c:	b0 12 e8 64 	call	#0x64e8	
    6560:	30 41       	ret			
    6562:	b0 12 e8 64 	call	#0x64e8	
    6566:	30 41       	ret			

00006568 <CC2420ControlP__RSTN__clr>:
    6568:	b0 12 32 4e 	call	#0x4e32	
    656c:	f2 f0 bf ff 1d 00 	and.b	#-65,	&0x001d	;#0xffbf
    6572:	b0 12 44 4e 	call	#0x4e44	
    6576:	30 41       	ret			

00006578 <CC2420ControlP__RSTN__set>:
    6578:	b0 12 32 4e 	call	#0x4e32	
    657c:	f2 d0 40 00 1d 00 	bis.b	#64,	&0x001d	;#0x0040
    6582:	b0 12 44 4e 	call	#0x4e44	
    6586:	30 41       	ret			

00006588 <Alarm32khzTo62500hzTransformC__AlarmFrom__fired>:
    6588:	4f 93       	tst.b	r15		
    658a:	03 24       	jz	$+8      	;abs 0x6592
    658c:	6f 93       	cmp.b	#2,	r15	;r3 As==10
    658e:	40 20       	jnz	$+130    	;abs 0x6610
    6590:	3b 3c       	jmp	$+120    	;abs 0x6608
    6592:	92 93 28 11 	cmp	#1,	&0x1128	;r3 As==01
    6596:	3c 20       	jnz	$+122    	;abs 0x6610
    6598:	a2 43 28 11 	mov	#2,	&0x1128	;r3 As==10
    659c:	b0 12 68 65 	call	#0x6568	
    65a0:	b0 12 78 65 	call	#0x6578	
    65a4:	a2 93 28 11 	cmp	#2,	&0x1128	;r3 As==10
    65a8:	33 20       	jnz	$+104    	;abs 0x6610
    65aa:	b2 40 03 00 28 11 	mov	#3,	&0x1128	;#0x0003
    65b0:	b0 12 ba 45 	call	#0x45ba	
    65b4:	b0 12 c0 45 	call	#0x45c0	
    65b8:	3e 40 18 00 	mov	#24,	r14	;#0x0018
    65bc:	7f 40 1d 00 	mov.b	#29,	r15	;#0x001d
    65c0:	b0 12 5c 4a 	call	#0x4a5c	
    65c4:	f2 f0 ef ff 25 00 	and.b	#-17,	&0x0025	;#0xffef
    65ca:	f2 f0 ef ff 23 00 	and.b	#-17,	&0x0023	;#0xffef
    65d0:	f2 f0 ef ff 24 00 	and.b	#-17,	&0x0024	;#0xffef
    65d6:	f2 d0 10 00 25 00 	bis.b	#16,	&0x0025	;#0x0010
    65dc:	5f 43       	mov.b	#1,	r15	;r3 As==01
    65de:	b0 12 50 46 	call	#0x4650	
    65e2:	3e 40 7f 02 	mov	#639,	r14	;#0x027f
    65e6:	7f 40 1c 00 	mov.b	#28,	r15	;#0x001c
    65ea:	b0 12 5c 4a 	call	#0x4a5c	
    65ee:	b0 12 80 4a 	call	#0x4a80	
    65f2:	b0 12 a0 4a 	call	#0x4aa0	
    65f6:	3e 40 56 2a 	mov	#10838,	r14	;#0x2a56
    65fa:	7f 40 17 00 	mov.b	#23,	r15	;#0x0017
    65fe:	b0 12 5c 4a 	call	#0x4a5c	
    6602:	b0 12 ba 45 	call	#0x45ba	
    6606:	30 41       	ret			
    6608:	7f 40 1a 00 	mov.b	#26,	r15	;#0x001a
    660c:	b0 12 4c 4e 	call	#0x4e4c	
    6610:	30 41       	ret			

00006612 <DispatchUnslottedCsmaP__IndirectTxWaitTimer__fired>:
    6612:	0b 12       	push	r11		
    6614:	b0 12 32 4e 	call	#0x4e32	
    6618:	4b 4f       	mov.b	r15,	r11	
    661a:	c2 93 38 11 	tst.b	&0x1138	
    661e:	06 24       	jz	$+14     	;abs 0x662c
    6620:	c2 43 38 11 	mov.b	#0,	&0x1138	;r3 As==00
    6624:	7f 40 05 00 	mov.b	#5,	r15	;#0x0005
    6628:	b0 12 4c 4e 	call	#0x4e4c	
    662c:	4f 4b       	mov.b	r11,	r15	
    662e:	b0 12 44 4e 	call	#0x4e44	
    6632:	3b 41       	pop	r11		
    6634:	30 41       	ret			

00006636 <AlarmToTimerC__1__start>:
    6636:	0b 12       	push	r11		
    6638:	0a 12       	push	r10		
    663a:	09 12       	push	r9		
    663c:	08 12       	push	r8		
    663e:	07 12       	push	r7		
    6640:	0a 4e       	mov	r14,	r10	
    6642:	0b 4f       	mov	r15,	r11	
    6644:	08 4c       	mov	r12,	r8	
    6646:	09 4d       	mov	r13,	r9	
    6648:	82 4c d0 13 	mov	r12,	&0x13d0	
    664c:	82 4d d2 13 	mov	r13,	&0x13d2	
    6650:	d2 41 0c 00 63 11 	mov.b	12(r1),	&0x1163	;0x000c(r1)
    6656:	b0 12 32 4e 	call	#0x4e32	
    665a:	47 4f       	mov.b	r15,	r7	
    665c:	6f 43       	mov.b	#2,	r15	;r3 As==10
    665e:	b0 12 f4 53 	call	#0x53f4	
    6662:	0e 8a       	sub	r10,	r14	
    6664:	0f 7b       	subc	r11,	r15	
    6666:	0a 4e       	mov	r14,	r10	
    6668:	0b 4f       	mov	r15,	r11	
    666a:	0f 99       	cmp	r9,	r15	
    666c:	04 28       	jnc	$+10     	;abs 0x6676
    666e:	09 9f       	cmp	r15,	r9	
    6670:	04 28       	jnc	$+10     	;abs 0x667a
    6672:	0e 98       	cmp	r8,	r14	
    6674:	02 2c       	jc	$+6      	;abs 0x667a
    6676:	0a 48       	mov	r8,	r10	
    6678:	0b 49       	mov	r9,	r11	
    667a:	08 4a       	mov	r10,	r8	
    667c:	09 4b       	mov	r11,	r9	
    667e:	08 8e       	sub	r14,	r8	
    6680:	09 7f       	subc	r15,	r9	
    6682:	0d 48       	mov	r8,	r13	
    6684:	0e 49       	mov	r9,	r14	
    6686:	6f 43       	mov.b	#2,	r15	;r3 As==10
    6688:	b0 12 48 65 	call	#0x6548	
    668c:	4f 47       	mov.b	r7,	r15	
    668e:	b0 12 44 4e 	call	#0x4e44	
    6692:	37 41       	pop	r7		
    6694:	38 41       	pop	r8		
    6696:	39 41       	pop	r9		
    6698:	3a 41       	pop	r10		
    669a:	3b 41       	pop	r11		
    669c:	30 41       	ret			

0000669e <SensirionSht11LogicP__0__CLOCK__set>:
    669e:	b0 12 32 4e 	call	#0x4e32	
    66a2:	f2 d0 40 00 21 00 	bis.b	#64,	&0x0021	;#0x0040
    66a8:	b0 12 44 4e 	call	#0x4e44	
    66ac:	30 41       	ret			

000066ae <Msp430GpioC__11__GeneralIO__clr>:
    66ae:	b0 12 32 4e 	call	#0x4e32	
    66b2:	f2 f0 bf ff 21 00 	and.b	#-65,	&0x0021	;#0xffbf
    66b8:	b0 12 44 4e 	call	#0x4e44	
    66bc:	30 41       	ret			

000066be <SensirionSht11LogicP__0__DATA__makeOutput>:
    66be:	b0 12 32 4e 	call	#0x4e32	
    66c2:	f2 d0 20 00 22 00 	bis.b	#32,	&0x0022	;#0x0020
    66c8:	b0 12 44 4e 	call	#0x4e44	
    66cc:	30 41       	ret			

000066ce <Msp430GpioC__10__GeneralIO__clr>:
    66ce:	b0 12 32 4e 	call	#0x4e32	
    66d2:	f2 f0 df ff 21 00 	and.b	#-33,	&0x0021	;#0xffdf
    66d8:	b0 12 44 4e 	call	#0x4e44	
    66dc:	30 41       	ret			

000066de <Msp430GpioC__10__GeneralIO__makeInput>:
    66de:	b0 12 32 4e 	call	#0x4e32	
    66e2:	f2 f0 df ff 22 00 	and.b	#-33,	&0x0022	;#0xffdf
    66e8:	b0 12 44 4e 	call	#0x4e44	
    66ec:	30 41       	ret			

000066ee <SensirionSht11LogicP__0__DATA__set>:
    66ee:	b0 12 32 4e 	call	#0x4e32	
    66f2:	f2 d0 20 00 21 00 	bis.b	#32,	&0x0021	;#0x0020
    66f8:	b0 12 44 4e 	call	#0x4e44	
    66fc:	30 41       	ret			

000066fe <SensirionSht11LogicP__0__readByte>:
    66fe:	0b 12       	push	r11		
    6700:	0a 12       	push	r10		
    6702:	4a 43       	clr.b	r10		
    6704:	4b 43       	clr.b	r11		
    6706:	b0 12 9e 66 	call	#0x669e	
    670a:	f2 b0 20 00 20 00 	bit.b	#32,	&0x0020	;#0x0020
    6710:	01 24       	jz	$+4      	;abs 0x6714
    6712:	5b d3       	bis.b	#1,	r11	;r3 As==01
    6714:	7a 90 07 00 	cmp.b	#7,	r10	;#0x0007
    6718:	01 24       	jz	$+4      	;abs 0x671c
    671a:	4b 5b       	rla.b	r11		
    671c:	b0 12 ae 66 	call	#0x66ae	
    6720:	5a 53       	inc.b	r10		
    6722:	7a 92       	cmp.b	#8,	r10	;r2 As==11
    6724:	f0 23       	jnz	$-30     	;abs 0x6706
    6726:	b0 12 be 66 	call	#0x66be	
    672a:	b0 12 ce 66 	call	#0x66ce	
    672e:	b0 12 9e 66 	call	#0x669e	
    6732:	b0 12 ae 66 	call	#0x66ae	
    6736:	b0 12 de 66 	call	#0x66de	
    673a:	b0 12 ee 66 	call	#0x66ee	
    673e:	4f 4b       	mov.b	r11,	r15	
    6740:	3a 41       	pop	r10		
    6742:	3b 41       	pop	r11		
    6744:	30 41       	ret			

00006746 <SensirionSht11LogicP__0__writeByte>:
    6746:	0b 12       	push	r11		
    6748:	0a 12       	push	r10		
    674a:	4b 4f       	mov.b	r15,	r11	
    674c:	7a 42       	mov.b	#8,	r10	;r2 As==11
    674e:	4b 93       	tst.b	r11		
    6750:	03 34       	jge	$+8      	;abs 0x6758
    6752:	b0 12 ee 66 	call	#0x66ee	
    6756:	02 3c       	jmp	$+6      	;abs 0x675c
    6758:	b0 12 ce 66 	call	#0x66ce	
    675c:	4b 5b       	rla.b	r11		
    675e:	b0 12 9e 66 	call	#0x669e	
    6762:	b0 12 ae 66 	call	#0x66ae	
    6766:	7a 53       	add.b	#-1,	r10	;r3 As==11
    6768:	f2 23       	jnz	$-26     	;abs 0x674e
    676a:	3a 41       	pop	r10		
    676c:	3b 41       	pop	r11		
    676e:	30 41       	ret			

00006770 <SensirionSht11LogicP__0__waitForResponse>:
    6770:	b0 12 de 66 	call	#0x66de	
    6774:	b0 12 ee 66 	call	#0x66ee	
    6778:	b0 12 9e 66 	call	#0x669e	
    677c:	f2 b0 20 00 20 00 	bit.b	#32,	&0x0020	;#0x0020
    6782:	04 20       	jnz	$+10     	;abs 0x678c
    6784:	b0 12 ae 66 	call	#0x66ae	
    6788:	4f 43       	clr.b	r15		
    678a:	30 41       	ret			
    678c:	5f 43       	mov.b	#1,	r15	;r3 As==01
    678e:	30 41       	ret			

00006790 <PowerManagerP__0__SplitControl__start>:
    6790:	b0 12 32 4e 	call	#0x4e32	
    6794:	f2 d0 80 ff 22 00 	bis.b	#-128,	&0x0022	;#0xff80
    679a:	b0 12 44 4e 	call	#0x4e44	
    679e:	b0 12 32 4e 	call	#0x4e32	
    67a2:	f2 d0 80 ff 21 00 	bis.b	#-128,	&0x0021	;#0xff80
    67a8:	b0 12 44 4e 	call	#0x4e44	
    67ac:	3d 40 0b 00 	mov	#11,	r13	;#0x000b
    67b0:	0e 43       	clr	r14		
    67b2:	5f 43       	mov.b	#1,	r15	;r3 As==01
    67b4:	b0 12 2c 5f 	call	#0x5f2c	
    67b8:	4f 43       	clr.b	r15		
    67ba:	30 41       	ret			

000067bc <SensirionSht11LogicP__0__enableInterrupt>:
    67bc:	0b 12       	push	r11		
    67be:	b0 12 de 66 	call	#0x66de	
    67c2:	b0 12 ee 66 	call	#0x66ee	
    67c6:	b0 12 32 4e 	call	#0x4e32	
    67ca:	4b 4f       	mov.b	r15,	r11	
    67cc:	b0 12 92 5d 	call	#0x5d92	
    67d0:	f2 d0 20 00 24 00 	bis.b	#32,	&0x0024	;#0x0020
    67d6:	f2 d0 20 00 25 00 	bis.b	#32,	&0x0025	;#0x0020
    67dc:	4f 4b       	mov.b	r11,	r15	
    67de:	b0 12 44 4e 	call	#0x4e44	
    67e2:	3b 41       	pop	r11		
    67e4:	30 41       	ret			

000067e6 <SensirionSht11LogicP__0__performCommand>:
    67e6:	0b 12       	push	r11		
    67e8:	b0 12 32 4e 	call	#0x4e32	
    67ec:	f2 d0 40 00 22 00 	bis.b	#64,	&0x0022	;#0x0040
    67f2:	b0 12 44 4e 	call	#0x4e44	
    67f6:	b0 12 ae 66 	call	#0x66ae	
    67fa:	b0 12 de 66 	call	#0x66de	
    67fe:	b0 12 ee 66 	call	#0x66ee	
    6802:	b0 12 92 5d 	call	#0x5d92	
    6806:	b0 12 be 66 	call	#0x66be	
    680a:	b0 12 ee 66 	call	#0x66ee	
    680e:	b0 12 ae 66 	call	#0x66ae	
    6812:	7b 40 09 00 	mov.b	#9,	r11	;#0x0009
    6816:	b0 12 9e 66 	call	#0x669e	
    681a:	b0 12 ae 66 	call	#0x66ae	
    681e:	7b 53       	add.b	#-1,	r11	;r3 As==11
    6820:	fa 23       	jnz	$-10     	;abs 0x6816
    6822:	b0 12 be 66 	call	#0x66be	
    6826:	b0 12 ee 66 	call	#0x66ee	
    682a:	b0 12 ae 66 	call	#0x66ae	
    682e:	b0 12 9e 66 	call	#0x669e	
    6832:	b0 12 ce 66 	call	#0x66ce	
    6836:	b0 12 ae 66 	call	#0x66ae	
    683a:	b0 12 9e 66 	call	#0x669e	
    683e:	b0 12 ee 66 	call	#0x66ee	
    6842:	b0 12 ae 66 	call	#0x66ae	
    6846:	1f 42 64 11 	mov	&0x1164,r15	
    684a:	3f f0 1f 00 	and	#31,	r15	;#0x001f
    684e:	82 4f 64 11 	mov	r15,	&0x1164	
    6852:	4f 4f       	mov.b	r15,	r15	
    6854:	b0 12 46 67 	call	#0x6746	
    6858:	b0 12 70 67 	call	#0x6770	
    685c:	4f 93       	tst.b	r15		
    685e:	04 24       	jz	$+10     	;abs 0x6868
    6860:	c2 43 1c 11 	mov.b	#0,	&0x111c	;r3 As==00
    6864:	5f 43       	mov.b	#1,	r15	;r3 As==01
    6866:	52 3c       	jmp	$+166    	;abs 0x690c
    6868:	1f 42 64 11 	mov	&0x1164,r15	
    686c:	3f 90 06 00 	cmp	#6,	r15	;#0x0006
    6870:	3a 24       	jz	$+118    	;abs 0x68e6
    6872:	3f 90 07 00 	cmp	#7,	r15	;#0x0007
    6876:	07 2c       	jc	$+16     	;abs 0x6886
    6878:	3f 90 03 00 	cmp	#3,	r15	;#0x0003
    687c:	0e 24       	jz	$+30     	;abs 0x689a
    687e:	3f 90 05 00 	cmp	#5,	r15	;#0x0005
    6882:	43 20       	jnz	$+136    	;abs 0x690a
    6884:	14 3c       	jmp	$+42     	;abs 0x68ae
    6886:	3f 90 07 00 	cmp	#7,	r15	;#0x0007
    688a:	1a 24       	jz	$+54     	;abs 0x68c0
    688c:	3f 90 1e 00 	cmp	#30,	r15	;#0x001e
    6890:	3c 20       	jnz	$+122    	;abs 0x690a
    6892:	3d 40 0b 00 	mov	#11,	r13	;#0x000b
    6896:	0e 43       	clr	r14		
    6898:	0f 3c       	jmp	$+32     	;abs 0x68b8
    689a:	b0 12 bc 67 	call	#0x67bc	
    689e:	5f 42 1a 11 	mov.b	&0x111a,r15	
    68a2:	1f f3       	and	#1,	r15	;r3 As==01
    68a4:	06 20       	jnz	$+14     	;abs 0x68b2
    68a6:	3d 40 4a 01 	mov	#330,	r13	;#0x014a
    68aa:	0e 43       	clr	r14		
    68ac:	05 3c       	jmp	$+12     	;abs 0x68b8
    68ae:	b0 12 bc 67 	call	#0x67bc	
    68b2:	3d 40 fa 00 	mov	#250,	r13	;#0x00fa
    68b6:	0e 43       	clr	r14		
    68b8:	6f 43       	mov.b	#2,	r15	;r3 As==10
    68ba:	b0 12 2c 5f 	call	#0x5f2c	
    68be:	25 3c       	jmp	$+76     	;abs 0x690a
    68c0:	b0 12 fe 66 	call	#0x66fe	
    68c4:	4b 4f       	mov.b	r15,	r11	
    68c6:	b0 12 fe 66 	call	#0x66fe	
    68ca:	b0 12 be 66 	call	#0x66be	
    68ce:	b0 12 ee 66 	call	#0x66ee	
    68d2:	b0 12 9e 66 	call	#0x669e	
    68d6:	b0 12 ae 66 	call	#0x66ae	
    68da:	c2 4b 1a 11 	mov.b	r11,	&0x111a	
    68de:	7f 40 1d 00 	mov.b	#29,	r15	;#0x001d
    68e2:	b0 12 4c 4e 	call	#0x4e4c	
    68e6:	5f 42 3d 15 	mov.b	&0x153d,r15	
    68ea:	b0 12 46 67 	call	#0x6746	
    68ee:	b0 12 70 67 	call	#0x6770	
    68f2:	4f 93       	tst.b	r15		
    68f4:	03 24       	jz	$+8      	;abs 0x68fc
    68f6:	d2 43 18 11 	mov.b	#1,	&0x1118	;r3 As==01
    68fa:	03 3c       	jmp	$+8      	;abs 0x6902
    68fc:	d2 42 3d 15 1a 11 	mov.b	&0x153d,&0x111a	
    6902:	7f 40 1d 00 	mov.b	#29,	r15	;#0x001d
    6906:	b0 12 4c 4e 	call	#0x4e4c	
    690a:	4f 43       	clr.b	r15		
    690c:	3b 41       	pop	r11		
    690e:	30 41       	ret			

00006910 <HplMsp430Usart0P__Usart__setModeSpi.constprop.240>:
    6910:	0b 12       	push	r11		
    6912:	b0 12 32 4e 	call	#0x4e32	
    6916:	4b 4f       	mov.b	r15,	r11	
    6918:	5f 43       	mov.b	#1,	r15	;r3 As==01
    691a:	b0 12 c6 49 	call	#0x49c6	
    691e:	f2 f0 da ff 70 00 	and.b	#-38,	&0x0070	;#0xffda
    6924:	5f 43       	mov.b	#1,	r15	;r3 As==01
    6926:	b0 12 c6 49 	call	#0x49c6	
    692a:	f2 f0 3f 00 04 00 	and.b	#63,	&0x0004	;#0x003f
    6930:	3e 40 1b 00 	mov	#27,	r14	;#0x001b
    6934:	fe f0 ef ff 00 00 	and.b	#-17,	0(r14)	;#0xffef, 0x0000(r14)
    693a:	fe f0 df ff 00 00 	and.b	#-33,	0(r14)	;#0xffdf, 0x0000(r14)
    6940:	3d 40 0e 11 	mov	#4366,	r13	;#0x110e
    6944:	6f 4d       	mov.b	@r13,	r15	
    6946:	7f d0 05 00 	bis.b	#5,	r15	;#0x0005
    694a:	c2 4f 70 00 	mov.b	r15,	&0x0070	
    694e:	d2 4d 01 00 71 00 	mov.b	1(r13),	&0x0071	;0x0001(r13)
    6954:	1d 42 0c 11 	mov	&0x110c,r13	
    6958:	c2 4d 74 00 	mov.b	r13,	&0x0074	
    695c:	8d 10       	swpb	r13		
    695e:	4d 4d       	mov.b	r13,	r13	
    6960:	c2 4d 75 00 	mov.b	r13,	&0x0075	
    6964:	c2 43 73 00 	mov.b	#0,	&0x0073	;r3 As==00
    6968:	ee d3 00 00 	bis.b	#2,	0(r14)	;r3 As==10, 0x0000(r14)
    696c:	ee d2 00 00 	bis.b	#4,	0(r14)	;r2 As==10, 0x0000(r14)
    6970:	fe d2 00 00 	bis.b	#8,	0(r14)	;r2 As==11, 0x0000(r14)
    6974:	f2 d0 40 00 04 00 	bis.b	#64,	&0x0004	;#0x0040
    697a:	4f 43       	clr.b	r15		
    697c:	b0 12 c6 49 	call	#0x49c6	
    6980:	f2 f0 3f 00 02 00 	and.b	#63,	&0x0002	;#0x003f
    6986:	f2 f0 3f 00 00 00 	and.b	#63,	&0x0000	;#0x003f
    698c:	4f 4b       	mov.b	r11,	r15	
    698e:	b0 12 44 4e 	call	#0x4e44	
    6992:	3b 41       	pop	r11		
    6994:	30 41       	ret			

00006996 <CC2420SpiP__Resource__immediateRequest>:
    6996:	0b 12       	push	r11		
    6998:	0a 12       	push	r10		
    699a:	4b 4f       	mov.b	r15,	r11	
    699c:	b0 12 32 4e 	call	#0x4e32	
    69a0:	4a 4f       	mov.b	r15,	r10	
    69a2:	c2 93 cd 14 	tst.b	&0x14cd	
    69a6:	06 20       	jnz	$+14     	;abs 0x69b4
    69a8:	d2 43 cd 14 	mov.b	#1,	&0x14cd	;r3 As==01
    69ac:	c2 93 04 11 	tst.b	&0x1104	
    69b0:	06 24       	jz	$+14     	;abs 0x69be
    69b2:	23 3c       	jmp	$+72     	;abs 0x69fa
    69b4:	b0 12 44 4e 	call	#0x4e44	
    69b8:	7f 40 05 00 	mov.b	#5,	r15	;#0x0005
    69bc:	1b 3c       	jmp	$+56     	;abs 0x69f4
    69be:	f2 90 03 00 24 11 	cmp.b	#3,	&0x1124	;#0x0003
    69c4:	1a 20       	jnz	$+54     	;abs 0x69fa
    69c6:	0b 3c       	jmp	$+24     	;abs 0x69de
    69c8:	e2 43 24 11 	mov.b	#2,	&0x1124	;r3 As==10
    69cc:	c2 43 f9 14 	mov.b	#0,	&0x14f9	;r3 As==00
    69d0:	b0 12 e0 4f 	call	#0x4fe0	
    69d4:	c2 93 04 11 	tst.b	&0x1104	
    69d8:	06 20       	jnz	$+14     	;abs 0x69e6
    69da:	b0 12 10 69 	call	#0x6910	
    69de:	c2 4b 07 11 	mov.b	r11,	&0x1107	
    69e2:	4b 43       	clr.b	r11		
    69e4:	03 3c       	jmp	$+8      	;abs 0x69ec
    69e6:	c2 43 24 11 	mov.b	#0,	&0x1124	;r3 As==00
    69ea:	0a 3c       	jmp	$+22     	;abs 0x6a00
    69ec:	4f 4a       	mov.b	r10,	r15	
    69ee:	b0 12 44 4e 	call	#0x4e44	
    69f2:	4f 4b       	mov.b	r11,	r15	
    69f4:	3a 41       	pop	r10		
    69f6:	3b 41       	pop	r11		
    69f8:	30 41       	ret			
    69fa:	c2 93 24 11 	tst.b	&0x1124	
    69fe:	e4 27       	jz	$-54     	;abs 0x69c8
    6a00:	c2 43 cd 14 	mov.b	#0,	&0x14cd	;r3 As==00
    6a04:	5b 43       	mov.b	#1,	r11	;r3 As==01
    6a06:	f2 3f       	jmp	$-26     	;abs 0x69ec

00006a08 <CC2420TKN154P__loadTxFrame.isra.177>:
    6a08:	b0 12 96 50 	call	#0x5096	
    6a0c:	4f 93       	tst.b	r15		
    6a0e:	04 20       	jnz	$+10     	;abs 0x6a18
    6a10:	b0 12 96 69 	call	#0x6996	
    6a14:	4f 93       	tst.b	r15		
    6a16:	03 20       	jnz	$+8      	;abs 0x6a1e
    6a18:	b0 12 96 59 	call	#0x5996	
    6a1c:	30 41       	ret			
    6a1e:	b0 12 98 5b 	call	#0x5b98	
    6a22:	30 41       	ret			

00006a24 <CC2420ReceiveP__beginReceive>:
    6a24:	0b 12       	push	r11		
    6a26:	82 93 ac 11 	tst	&0x11ac	
    6a2a:	1b 24       	jz	$+56     	;abs 0x6a62
    6a2c:	c2 93 66 13 	tst.b	&0x1366	
    6a30:	18 20       	jnz	$+50     	;abs 0x6a62
    6a32:	b2 40 03 00 ac 11 	mov	#3,	&0x11ac	;#0x0003
    6a38:	d2 43 c0 11 	mov.b	#1,	&0x11c0	;r3 As==01
    6a3c:	b0 12 32 4e 	call	#0x4e32	
    6a40:	5b 42 07 11 	mov.b	&0x1107,r11	
    6a44:	b0 12 44 4e 	call	#0x4e44	
    6a48:	5b 93       	cmp.b	#1,	r11	;r3 As==01
    6a4a:	05 24       	jz	$+12     	;abs 0x6a56
    6a4c:	5f 43       	mov.b	#1,	r15	;r3 As==01
    6a4e:	b0 12 96 69 	call	#0x6996	
    6a52:	4f 93       	tst.b	r15		
    6a54:	03 20       	jnz	$+8      	;abs 0x6a5c
    6a56:	b0 12 d0 4e 	call	#0x4ed0	
    6a5a:	03 3c       	jmp	$+8      	;abs 0x6a62
    6a5c:	5f 43       	mov.b	#1,	r15	;r3 As==01
    6a5e:	b0 12 f6 5a 	call	#0x5af6	
    6a62:	3b 41       	pop	r11		
    6a64:	30 41       	ret			

00006a66 <CC2420ReceiveP__waitForNextPacket>:
    6a66:	0b 12       	push	r11		
    6a68:	b0 12 32 4e 	call	#0x4e32	
    6a6c:	4b 4f       	mov.b	r15,	r11	
    6a6e:	82 93 ac 11 	tst	&0x11ac	
    6a72:	1e 24       	jz	$+62     	;abs 0x6ab0
    6a74:	c2 43 c0 11 	mov.b	#0,	&0x11c0	;r3 As==00
    6a78:	c2 93 66 13 	tst.b	&0x1366	
    6a7c:	03 24       	jz	$+8      	;abs 0x6a84
    6a7e:	b0 12 14 50 	call	#0x5014	
    6a82:	19 3c       	jmp	$+52     	;abs 0x6ab6
    6a84:	5f 42 b5 11 	mov.b	&0x11b5,r15	
    6a88:	4f 93       	tst.b	r15		
    6a8a:	03 24       	jz	$+8      	;abs 0x6a92
    6a8c:	f2 b2 20 00 	bit.b	#8,	&0x0020	;r2 As==11
    6a90:	05 20       	jnz	$+12     	;abs 0x6a9c
    6a92:	d2 b3 20 00 	bit.b	#1,	&0x0020	;r3 As==01
    6a96:	08 20       	jnz	$+18     	;abs 0x6aa8
    6a98:	4f 93       	tst.b	r15		
    6a9a:	03 24       	jz	$+8      	;abs 0x6aa2
    6a9c:	7f 53       	add.b	#-1,	r15	;r3 As==11
    6a9e:	c2 4f b5 11 	mov.b	r15,	&0x11b5	
    6aa2:	b0 12 24 6a 	call	#0x6a24	
    6aa6:	07 3c       	jmp	$+16     	;abs 0x6ab6
    6aa8:	a2 43 ac 11 	mov	#2,	&0x11ac	;r3 As==10
    6aac:	c2 43 b5 11 	mov.b	#0,	&0x11b5	;r3 As==00
    6ab0:	5f 43       	mov.b	#1,	r15	;r3 As==01
    6ab2:	b0 12 ba 51 	call	#0x51ba	
    6ab6:	4f 4b       	mov.b	r11,	r15	
    6ab8:	b0 12 44 4e 	call	#0x4e44	
    6abc:	3b 41       	pop	r11		
    6abe:	30 41       	ret			

00006ac0 <CC2420ReceiveP__flush>:
    6ac0:	f2 40 80 ff 7b 11 	mov.b	#-128,	&0x117b	;#0xff80
    6ac6:	c2 43 c0 11 	mov.b	#0,	&0x11c0	;r3 As==00
    6aca:	c2 43 73 15 	mov.b	#0,	&0x1573	;r3 As==00
    6ace:	c2 43 6c 15 	mov.b	#0,	&0x156c	;r3 As==00
    6ad2:	c2 43 b5 11 	mov.b	#0,	&0x11b5	;r3 As==00
    6ad6:	b0 12 02 46 	call	#0x4602	
    6ada:	f2 f0 fb ff 1d 00 	and.b	#-5,	&0x001d	;#0xfffb
    6ae0:	7f 42       	mov.b	#8,	r15	;r2 As==11
    6ae2:	b0 12 50 46 	call	#0x4650	
    6ae6:	7f 42       	mov.b	#8,	r15	;r2 As==11
    6ae8:	b0 12 50 46 	call	#0x4650	
    6aec:	b0 12 02 46 	call	#0x4602	
    6af0:	5f 43       	mov.b	#1,	r15	;r3 As==01
    6af2:	b0 12 ba 51 	call	#0x51ba	
    6af6:	b0 12 66 6a 	call	#0x6a66	
    6afa:	30 41       	ret			

00006afc <RadioControlImplP__MacRx__enableRx.part.179.constprop.237>:
    6afc:	0b 12       	push	r11		
    6afe:	b0 12 32 4e 	call	#0x4e32	
    6b02:	a2 92 2a 11 	cmp	#4,	&0x112a	;r2 As==10
    6b06:	04 24       	jz	$+10     	;abs 0x6b10
    6b08:	b0 12 44 4e 	call	#0x4e44	
    6b0c:	5b 43       	mov.b	#1,	r11	;r3 As==01
    6b0e:	1b 3c       	jmp	$+56     	;abs 0x6b46
    6b10:	b2 40 05 00 2a 11 	mov	#5,	&0x112a	;#0x0005
    6b16:	b0 12 44 4e 	call	#0x4e44	
    6b1a:	82 43 c8 11 	mov	#0,	&0x11c8	;r3 As==00
    6b1e:	82 43 ca 11 	mov	#0,	&0x11ca	;r3 As==00
    6b22:	82 43 74 11 	mov	#0,	&0x1174	;r3 As==00
    6b26:	82 43 76 11 	mov	#0,	&0x1176	;r3 As==00
    6b2a:	b0 12 9c 52 	call	#0x529c	
    6b2e:	4b 4f       	mov.b	r15,	r11	
    6b30:	4f 93       	tst.b	r15		
    6b32:	09 20       	jnz	$+20     	;abs 0x6b46
    6b34:	b0 12 96 69 	call	#0x6996	
    6b38:	4f 93       	tst.b	r15		
    6b3a:	03 20       	jnz	$+8      	;abs 0x6b42
    6b3c:	b0 12 2c 6d 	call	#0x6d2c	
    6b40:	02 3c       	jmp	$+6      	;abs 0x6b46
    6b42:	b0 12 98 5b 	call	#0x5b98	
    6b46:	4f 4b       	mov.b	r11,	r15	
    6b48:	3b 41       	pop	r11		
    6b4a:	30 41       	ret			

00006b4c <PromiscuousModeP__RadioOff__offDone>:
    6b4c:	a2 93 a0 12 	cmp	#2,	&0x12a0	;r3 As==10
    6b50:	07 20       	jnz	$+16     	;abs 0x6b60
    6b52:	b0 12 5e 52 	call	#0x525e	
    6b56:	6f 93       	cmp.b	#2,	r15	;r3 As==10
    6b58:	07 20       	jnz	$+16     	;abs 0x6b68
    6b5a:	b0 12 fc 6a 	call	#0x6afc	
    6b5e:	30 41       	ret			
    6b60:	7f 40 10 00 	mov.b	#16,	r15	;#0x0010
    6b64:	b0 12 4c 4e 	call	#0x4e4c	
    6b68:	30 41       	ret			

00006b6a <DispatchUnslottedCsmaP__tryReceive>:
    6b6a:	b0 12 5e 52 	call	#0x525e	
    6b6e:	7f 90 0c 00 	cmp.b	#12,	r15	;#0x000c
    6b72:	11 20       	jnz	$+36     	;abs 0x6b96
    6b74:	b2 90 07 00 2a 11 	cmp	#7,	&0x112a	;#0x0007
    6b7a:	0d 24       	jz	$+28     	;abs 0x6b96
    6b7c:	b0 12 80 52 	call	#0x5280	
    6b80:	4f 93       	tst.b	r15		
    6b82:	0c 24       	jz	$+26     	;abs 0x6b9c
    6b84:	b0 12 5e 52 	call	#0x525e	
    6b88:	7f 90 0c 00 	cmp.b	#12,	r15	;#0x000c
    6b8c:	09 20       	jnz	$+20     	;abs 0x6ba0
    6b8e:	b0 12 fc 6a 	call	#0x6afc	
    6b92:	1f 43       	mov	#1,	r15	;r3 As==01
    6b94:	30 41       	ret			
    6b96:	3f 40 03 00 	mov	#3,	r15	;#0x0003
    6b9a:	30 41       	ret			
    6b9c:	0f 43       	clr	r15		
    6b9e:	30 41       	ret			
    6ba0:	1f 43       	mov	#1,	r15	;r3 As==01
    6ba2:	30 41       	ret			

00006ba4 <DispatchUnslottedCsmaP__updateState>:
    6ba4:	0b 12       	push	r11		
    6ba6:	0a 12       	push	r10		
    6ba8:	b0 12 32 4e 	call	#0x4e32	
    6bac:	4a 4f       	mov.b	r15,	r10	
    6bae:	c2 93 a3 14 	tst.b	&0x14a3	
    6bb2:	7d 20       	jnz	$+252    	;abs 0x6cae
    6bb4:	7f 40 0c 00 	mov.b	#12,	r15	;#0x000c
    6bb8:	b0 12 6c 59 	call	#0x596c	
    6bbc:	4f 93       	tst.b	r15		
    6bbe:	77 24       	jz	$+240    	;abs 0x6cae
    6bc0:	d2 43 a3 14 	mov.b	#1,	&0x14a3	;r3 As==01
    6bc4:	c2 93 38 11 	tst.b	&0x1138	
    6bc8:	07 24       	jz	$+16     	;abs 0x6bd8
    6bca:	b0 12 6a 6b 	call	#0x6b6a	
    6bce:	0b 4f       	mov	r15,	r11	
    6bd0:	3f 90 03 00 	cmp	#3,	r15	;#0x0003
    6bd4:	70 24       	jz	$+226    	;abs 0x6cb6
    6bd6:	73 3c       	jmp	$+232    	;abs 0x6cbe
    6bd8:	1e 42 a0 12 	mov	&0x12a0,r14	
    6bdc:	1f 43       	mov	#1,	r15	;r3 As==01
    6bde:	c2 93 9c 15 	tst.b	&0x159c	
    6be2:	03 20       	jnz	$+8      	;abs 0x6bea
    6be4:	2e 93       	cmp	#2,	r14	;r3 As==10
    6be6:	01 24       	jz	$+4      	;abs 0x6bea
    6be8:	0f 43       	clr	r15		
    6bea:	5e 42 34 11 	mov.b	&0x1134,r14	
    6bee:	0f 93       	tst	r15		
    6bf0:	05 20       	jnz	$+12     	;abs 0x6bfc
    6bf2:	1f 43       	mov	#1,	r15	;r3 As==01
    6bf4:	4e 93       	tst.b	r14		
    6bf6:	03 20       	jnz	$+8      	;abs 0x6bfe
    6bf8:	0f 43       	clr	r15		
    6bfa:	01 3c       	jmp	$+4      	;abs 0x6bfe
    6bfc:	1f 43       	mov	#1,	r15	;r3 As==01
    6bfe:	0f 93       	tst	r15		
    6c00:	09 24       	jz	$+20     	;abs 0x6c14
    6c02:	b0 12 80 52 	call	#0x5280	
    6c06:	4f 93       	tst.b	r15		
    6c08:	66 24       	jz	$+206    	;abs 0x6cd6
    6c0a:	7f 40 0c 00 	mov.b	#12,	r15	;#0x000c
    6c0e:	b0 12 ae 6d 	call	#0x6dae	
    6c12:	47 3c       	jmp	$+144    	;abs 0x6ca2
    6c14:	82 93 7e 11 	tst	&0x117e	
    6c18:	2f 24       	jz	$+96     	;abs 0x6c78
    6c1a:	b0 12 80 52 	call	#0x5280	
    6c1e:	4f 93       	tst.b	r15		
    6c20:	5a 24       	jz	$+182    	;abs 0x6cd6
    6c22:	1b 42 7e 11 	mov	&0x117e,r11	
    6c26:	b0 12 5e 52 	call	#0x525e	
    6c2a:	7f 90 0c 00 	cmp.b	#12,	r15	;#0x000c
    6c2e:	51 20       	jnz	$+164    	;abs 0x6cd2
    6c30:	0b 93       	tst	r11		
    6c32:	4f 24       	jz	$+160    	;abs 0x6cd2
    6c34:	8b 93 00 00 	tst	0(r11)		;0x0000(r11)
    6c38:	4c 24       	jz	$+154    	;abs 0x6cd2
    6c3a:	8b 93 02 00 	tst	2(r11)		;0x0002(r11)
    6c3e:	03 20       	jnz	$+8      	;abs 0x6c46
    6c40:	cb 93 07 00 	tst.b	7(r11)		;0x0007(r11)
    6c44:	46 20       	jnz	$+142    	;abs 0x6cd2
    6c46:	8b 93 04 00 	tst	4(r11)		;0x0004(r11)
    6c4a:	43 24       	jz	$+136    	;abs 0x6cd2
    6c4c:	5f 4b 06 00 	mov.b	6(r11),	r15	;0x0006(r11)
    6c50:	5e 4b 07 00 	mov.b	7(r11),	r14	;0x0007(r11)
    6c54:	0f 5e       	add	r14,	r15	
    6c56:	3f 90 7e 00 	cmp	#126,	r15	;#0x007e
    6c5a:	3b 34       	jge	$+120    	;abs 0x6cd2
    6c5c:	a2 92 2a 11 	cmp	#4,	&0x112a	;r2 As==10
    6c60:	38 20       	jnz	$+114    	;abs 0x6cd2
    6c62:	b2 40 0a 00 2a 11 	mov	#10,	&0x112a	;#0x000a
    6c68:	82 4b ca 14 	mov	r11,	&0x14ca	
    6c6c:	b2 40 78 13 80 11 	mov	#4984,	&0x1180	;#0x1378
    6c72:	b0 12 08 6a 	call	#0x6a08	
    6c76:	2d 3c       	jmp	$+92     	;abs 0x6cd2
    6c78:	c2 93 bb 11 	tst.b	&0x11bb	
    6c7c:	03 20       	jnz	$+8      	;abs 0x6c84
    6c7e:	c2 93 5f 13 	tst.b	&0x135f	
    6c82:	0b 24       	jz	$+24     	;abs 0x6c9a
    6c84:	b0 12 6a 6b 	call	#0x6b6a	
    6c88:	0b 4f       	mov	r15,	r11	
    6c8a:	3f 90 03 00 	cmp	#3,	r15	;#0x0003
    6c8e:	17 20       	jnz	$+48     	;abs 0x6cbe
    6c90:	7f 40 06 00 	mov.b	#6,	r15	;#0x0006
    6c94:	b0 12 4c 4e 	call	#0x4e4c	
    6c98:	0e 3c       	jmp	$+30     	;abs 0x6cb6
    6c9a:	b0 12 80 52 	call	#0x5280	
    6c9e:	4f 93       	tst.b	r15		
    6ca0:	1a 24       	jz	$+54     	;abs 0x6cd6
    6ca2:	c2 43 a3 14 	mov.b	#0,	&0x14a3	;r3 As==00
    6ca6:	7f 40 0c 00 	mov.b	#12,	r15	;#0x000c
    6caa:	b0 12 02 5a 	call	#0x5a02	
    6cae:	4f 4a       	mov.b	r10,	r15	
    6cb0:	b0 12 44 4e 	call	#0x4e44	
    6cb4:	12 3c       	jmp	$+38     	;abs 0x6cda
    6cb6:	c2 43 a3 14 	mov.b	#0,	&0x14a3	;r3 As==00
    6cba:	3b 40 03 00 	mov	#3,	r11	;#0x0003
    6cbe:	4f 4a       	mov.b	r10,	r15	
    6cc0:	b0 12 44 4e 	call	#0x4e44	
    6cc4:	0b 93       	tst	r11		
    6cc6:	09 20       	jnz	$+20     	;abs 0x6cda
    6cc8:	7f 40 0c 00 	mov.b	#12,	r15	;#0x000c
    6ccc:	b0 12 b0 5a 	call	#0x5ab0	
    6cd0:	04 3c       	jmp	$+10     	;abs 0x6cda
    6cd2:	2b 43       	mov	#2,	r11	;r3 As==10
    6cd4:	f4 3f       	jmp	$-22     	;abs 0x6cbe
    6cd6:	0b 43       	clr	r11		
    6cd8:	f2 3f       	jmp	$-26     	;abs 0x6cbe
    6cda:	3a 41       	pop	r10		
    6cdc:	3b 41       	pop	r11		
    6cde:	30 41       	ret			

00006ce0 <CC2420TKN154P__ReliableWait__waitRxDone>:
    6ce0:	b2 40 07 00 2a 11 	mov	#7,	&0x112a	;#0x0007
    6ce6:	b0 12 2a 59 	call	#0x592a	
    6cea:	d2 43 82 11 	mov.b	#1,	&0x1182	;r3 As==01
    6cee:	b0 12 3e 52 	call	#0x523e	
    6cf2:	b0 12 5e 52 	call	#0x525e	
    6cf6:	6f 93       	cmp.b	#2,	r15	;r3 As==10
    6cf8:	08 24       	jz	$+18     	;abs 0x6d0a
    6cfa:	7f 90 0c 00 	cmp.b	#12,	r15	;#0x000c
    6cfe:	0a 24       	jz	$+22     	;abs 0x6d14
    6d00:	4f 93       	tst.b	r15		
    6d02:	13 20       	jnz	$+40     	;abs 0x6d2a
    6d04:	7f 40 0a 00 	mov.b	#10,	r15	;#0x000a
    6d08:	02 3c       	jmp	$+6      	;abs 0x6d0e
    6d0a:	7f 40 0f 00 	mov.b	#15,	r15	;#0x000f
    6d0e:	b0 12 4c 4e 	call	#0x4e4c	
    6d12:	30 41       	ret			
    6d14:	c2 93 38 11 	tst.b	&0x1138	
    6d18:	04 24       	jz	$+10     	;abs 0x6d22
    6d1a:	7f 40 07 00 	mov.b	#7,	r15	;#0x0007
    6d1e:	b0 12 4c 4e 	call	#0x4e4c	
    6d22:	c2 43 a3 14 	mov.b	#0,	&0x14a3	;r3 As==00
    6d26:	b0 12 a4 6b 	call	#0x6ba4	
    6d2a:	30 41       	ret			

00006d2c <CC2420TKN154P__rxSpiReserved>:
    6d2c:	0b 12       	push	r11		
    6d2e:	0a 12       	push	r10		
    6d30:	09 12       	push	r9		
    6d32:	08 12       	push	r8		
    6d34:	07 12       	push	r7		
    6d36:	b2 40 06 00 2a 11 	mov	#6,	&0x112a	;#0x0006
    6d3c:	b0 12 08 53 	call	#0x5308	
    6d40:	b0 12 8a 51 	call	#0x518a	
    6d44:	b0 12 78 53 	call	#0x5378	
    6d48:	b0 12 32 4e 	call	#0x4e32	
    6d4c:	48 4f       	mov.b	r15,	r8	
    6d4e:	17 42 74 11 	mov	&0x1174,r7	
    6d52:	19 42 76 11 	mov	&0x1176,r9	
    6d56:	1a 42 c8 11 	mov	&0x11c8,r10	
    6d5a:	1b 42 ca 11 	mov	&0x11ca,r11	
    6d5e:	5f 43       	mov.b	#1,	r15	;r3 As==01
    6d60:	b0 12 f4 53 	call	#0x53f4	
    6d64:	0e 8a       	sub	r10,	r14	
    6d66:	0f 7b       	subc	r11,	r15	
    6d68:	0f 99       	cmp	r9,	r15	
    6d6a:	06 28       	jnc	$+14     	;abs 0x6d78
    6d6c:	02 20       	jnz	$+6      	;abs 0x6d72
    6d6e:	0e 97       	cmp	r7,	r14	
    6d70:	03 28       	jnc	$+8      	;abs 0x6d78
    6d72:	b0 12 e0 6c 	call	#0x6ce0	
    6d76:	12 3c       	jmp	$+38     	;abs 0x6d9c
    6d78:	1c 42 74 11 	mov	&0x1174,r12	
    6d7c:	1d 42 76 11 	mov	&0x1176,r13	
    6d80:	1e 42 c8 11 	mov	&0x11c8,r14	
    6d84:	1f 42 ca 11 	mov	&0x11ca,r15	
    6d88:	c2 93 1e 11 	tst.b	&0x111e	
    6d8c:	07 20       	jnz	$+16     	;abs 0x6d9c
    6d8e:	d2 43 1e 11 	mov.b	#1,	&0x111e	;r3 As==01
    6d92:	3e 50 f0 ff 	add	#-16,	r14	;#0xfff0
    6d96:	3f 63       	addc	#-1,	r15	;r3 As==11
    6d98:	b0 12 22 57 	call	#0x5722	
    6d9c:	4f 48       	mov.b	r8,	r15	
    6d9e:	b0 12 44 4e 	call	#0x4e44	
    6da2:	37 41       	pop	r7		
    6da4:	38 41       	pop	r8		
    6da6:	39 41       	pop	r9		
    6da8:	3a 41       	pop	r10		
    6daa:	3b 41       	pop	r11		
    6dac:	30 41       	ret			

00006dae <SimpleTransferArbiterP__0__Resource__request>:
    6dae:	0b 12       	push	r11		
    6db0:	0a 12       	push	r10		
    6db2:	4b 4f       	mov.b	r15,	r11	
    6db4:	f2 90 0c 00 09 11 	cmp.b	#12,	&0x1109	;#0x000c
    6dba:	02 20       	jnz	$+6      	;abs 0x6dc0
    6dbc:	b0 12 a4 6b 	call	#0x6ba4	
    6dc0:	b0 12 32 4e 	call	#0x4e32	
    6dc4:	4a 4f       	mov.b	r15,	r10	
    6dc6:	c2 93 3a 11 	tst.b	&0x113a	
    6dca:	0c 20       	jnz	$+26     	;abs 0x6de4
    6dcc:	d2 43 3a 11 	mov.b	#1,	&0x113a	;r3 As==01
    6dd0:	c2 4b af 11 	mov.b	r11,	&0x11af	
    6dd4:	6f 42       	mov.b	#4,	r15	;r2 As==10
    6dd6:	b0 12 4c 4e 	call	#0x4e4c	
    6dda:	4f 4a       	mov.b	r10,	r15	
    6ddc:	b0 12 44 4e 	call	#0x4e44	
    6de0:	4f 43       	clr.b	r15		
    6de2:	21 3c       	jmp	$+68     	;abs 0x6e26
    6de4:	4e 4b       	mov.b	r11,	r14	
    6de6:	12 c3       	clrc			
    6de8:	4e 10       	rrc.b	r14		
    6dea:	12 c3       	clrc			
    6dec:	4e 10       	rrc.b	r14		
    6dee:	12 c3       	clrc			
    6df0:	4e 10       	rrc.b	r14		
    6df2:	4e 4e       	mov.b	r14,	r14	
    6df4:	5f 4e a6 13 	mov.b	5030(r14),r15	;0x13a6(r14)
    6df8:	1d 43       	mov	#1,	r13	;r3 As==01
    6dfa:	4c 4b       	mov.b	r11,	r12	
    6dfc:	7c f0 07 00 	and.b	#7,	r12	;#0x0007
    6e00:	4c 93       	tst.b	r12		
    6e02:	03 24       	jz	$+8      	;abs 0x6e0a
    6e04:	0d 5d       	rla	r13		
    6e06:	7c 53       	add.b	#-1,	r12	;r3 As==11
    6e08:	fb 3f       	jmp	$-8      	;abs 0x6e00
    6e0a:	4d 4d       	mov.b	r13,	r13	
    6e0c:	4d bf       	bit.b	r15,	r13	
    6e0e:	05 20       	jnz	$+12     	;abs 0x6e1a
    6e10:	4d df       	bis.b	r15,	r13	
    6e12:	ce 4d a6 13 	mov.b	r13,	5030(r14);0x13a6(r14)
    6e16:	4b 43       	clr.b	r11		
    6e18:	02 3c       	jmp	$+6      	;abs 0x6e1e
    6e1a:	7b 40 05 00 	mov.b	#5,	r11	;#0x0005
    6e1e:	4f 4a       	mov.b	r10,	r15	
    6e20:	b0 12 44 4e 	call	#0x4e44	
    6e24:	4f 4b       	mov.b	r11,	r15	
    6e26:	3a 41       	pop	r10		
    6e28:	3b 41       	pop	r11		
    6e2a:	30 41       	ret			

00006e2c <DispatchUnslottedCsmaP__UnslottedCsmaCa__transmitDone.isra.187>:
    6e2c:	c2 43 a6 12 	mov.b	#0,	&0x12a6	;r3 As==00
    6e30:	5d 93       	cmp.b	#1,	r13	;r3 As==01
    6e32:	28 24       	jz	$+82     	;abs 0x6e84
    6e34:	04 28       	jnc	$+10     	;abs 0x6e3e
    6e36:	7d 90 0b 00 	cmp.b	#11,	r13	;#0x000b
    6e3a:	3e 20       	jnz	$+126    	;abs 0x6eb8
    6e3c:	27 3c       	jmp	$+80     	;abs 0x6e8c
    6e3e:	82 43 cc 11 	mov	#0,	&0x11cc	;r3 As==00
    6e42:	1d 4f 02 00 	mov	2(r15),	r13	;0x0002(r15)
    6e46:	ed 92 00 00 	cmp.b	#4,	0(r13)	;r2 As==10, 0x0000(r13)
    6e4a:	36 20       	jnz	$+110    	;abs 0x6eb8
    6e4c:	2f 4f       	mov	@r15,	r15	
    6e4e:	5f 4f 01 00 	mov.b	1(r15),	r15	;0x0001(r15)
    6e52:	3f f0 07 00 	and	#7,	r15	;#0x0007
    6e56:	3f 90 03 00 	cmp	#3,	r15	;#0x0003
    6e5a:	2e 20       	jnz	$+94     	;abs 0x6eb8
    6e5c:	b2 40 eb 00 cc 11 	mov	#235,	&0x11cc	;#0x00eb
    6e62:	4e 93       	tst.b	r14		
    6e64:	29 24       	jz	$+84     	;abs 0x6eb8
    6e66:	d2 43 38 11 	mov.b	#1,	&0x1138	;r3 As==01
    6e6a:	92 42 7e 11 94 15 	mov	&0x117e,&0x1594	
    6e70:	82 43 7e 11 	mov	#0,	&0x117e	;r3 As==00
    6e74:	b0 12 5e 52 	call	#0x525e	
    6e78:	7f 90 0c 00 	cmp.b	#12,	r15	;#0x000c
    6e7c:	2a 20       	jnz	$+86     	;abs 0x6ed2
    6e7e:	b0 12 fc 6a 	call	#0x6afc	
    6e82:	30 41       	ret			
    6e84:	b2 40 e1 00 cc 11 	mov	#225,	&0x11cc	;#0x00e1
    6e8a:	16 3c       	jmp	$+46     	;abs 0x6eb8
    6e8c:	5f 42 3c 15 	mov.b	&0x153c,r15	
    6e90:	4f 93       	tst.b	r15		
    6e92:	0f 24       	jz	$+32     	;abs 0x6eb2
    6e94:	c2 43 7b 13 	mov.b	#0,	&0x137b	;r3 As==00
    6e98:	d2 42 5e 13 7a 13 	mov.b	&0x135e,&0x137a	
    6e9e:	d2 42 a2 14 79 13 	mov.b	&0x14a2,&0x1379	
    6ea4:	d2 42 44 11 78 13 	mov.b	&0x1144,&0x1378	
    6eaa:	7f 53       	add.b	#-1,	r15	;r3 As==11
    6eac:	c2 4f 3c 15 	mov.b	r15,	&0x153c	
    6eb0:	0c 3c       	jmp	$+26     	;abs 0x6eca
    6eb2:	b2 40 e9 00 cc 11 	mov	#233,	&0x11cc	;#0x00e9
    6eb8:	92 42 7e 11 94 15 	mov	&0x117e,&0x1594	
    6ebe:	82 43 7e 11 	mov	#0,	&0x117e	;r3 As==00
    6ec2:	7f 40 05 00 	mov.b	#5,	r15	;#0x0005
    6ec6:	b0 12 4c 4e 	call	#0x4e4c	
    6eca:	c2 43 a3 14 	mov.b	#0,	&0x14a3	;r3 As==00
    6ece:	b0 12 a4 6b 	call	#0x6ba4	
    6ed2:	30 41       	ret			

00006ed4 <CC2420TKN154P__sendDoneSpiReserved>:
    6ed4:	0b 12       	push	r11		
    6ed6:	0a 12       	push	r10		
    6ed8:	09 12       	push	r9		
    6eda:	1b 42 2a 11 	mov	&0x112a,r11	
    6ede:	1a 42 ca 14 	mov	&0x14ca,r10	
    6ee2:	b0 12 ee 50 	call	#0x50ee	
    6ee6:	b0 12 28 51 	call	#0x5128	
    6eea:	c2 43 82 11 	mov.b	#0,	&0x1182	;r3 As==00
    6eee:	b0 12 8a 51 	call	#0x518a	
    6ef2:	b0 12 3e 52 	call	#0x523e	
    6ef6:	a2 42 2a 11 	mov	#4,	&0x112a	;r2 As==10
    6efa:	3b 90 0f 00 	cmp	#15,	r11	;#0x000f
    6efe:	0b 20       	jnz	$+24     	;abs 0x6f16
    6f00:	b0 12 5e 52 	call	#0x525e	
    6f04:	4f 93       	tst.b	r15		
    6f06:	18 20       	jnz	$+50     	;abs 0x6f38
    6f08:	b0 12 5e 52 	call	#0x525e	
    6f0c:	4f 93       	tst.b	r15		
    6f0e:	14 20       	jnz	$+42     	;abs 0x6f38
    6f10:	b0 12 fc 6a 	call	#0x6afc	
    6f14:	11 3c       	jmp	$+36     	;abs 0x6f38
    6f16:	3b 90 10 00 	cmp	#16,	r11	;#0x0010
    6f1a:	0e 20       	jnz	$+30     	;abs 0x6f38
    6f1c:	59 42 7a 11 	mov.b	&0x117a,r9	
    6f20:	5b 42 78 11 	mov.b	&0x1178,r11	
    6f24:	b0 12 5e 52 	call	#0x525e	
    6f28:	7f 90 0c 00 	cmp.b	#12,	r15	;#0x000c
    6f2c:	05 20       	jnz	$+12     	;abs 0x6f38
    6f2e:	4d 49       	mov.b	r9,	r13	
    6f30:	4e 4b       	mov.b	r11,	r14	
    6f32:	0f 4a       	mov	r10,	r15	
    6f34:	b0 12 2c 6e 	call	#0x6e2c	
    6f38:	39 41       	pop	r9		
    6f3a:	3a 41       	pop	r10		
    6f3c:	3b 41       	pop	r11		
    6f3e:	30 41       	ret			

00006f40 <CC2420TransmitP__signalDone>:
    6f40:	92 43 22 11 	mov	#1,	&0x1122	;r3 As==01
    6f44:	c2 4f 78 11 	mov.b	r15,	&0x1178	
    6f48:	c2 4e 7a 11 	mov.b	r14,	&0x117a	
    6f4c:	b0 12 96 50 	call	#0x5096	
    6f50:	4f 93       	tst.b	r15		
    6f52:	03 20       	jnz	$+8      	;abs 0x6f5a
    6f54:	b0 12 b0 50 	call	#0x50b0	
    6f58:	02 3c       	jmp	$+6      	;abs 0x6f5e
    6f5a:	b0 12 d4 6e 	call	#0x6ed4	
    6f5e:	b0 12 58 4f 	call	#0x4f58	
    6f62:	30 41       	ret			

00006f64 <Msp430SpiNoDmaP__0__signalDone>:
    6f64:	0b 12       	push	r11		
    6f66:	0a 12       	push	r10		
    6f68:	09 12       	push	r9		
    6f6a:	08 12       	push	r8		
    6f6c:	18 42 3e 14 	mov	&0x143e,r8	
    6f70:	1b 42 aa 12 	mov	&0x12aa,r11	
    6f74:	c2 93 c2 12 	tst.b	&0x12c2	
    6f78:	02 24       	jz	$+6      	;abs 0x6f7e
    6f7a:	30 40 38 72 	br	#0x7238	
    6f7e:	1f 42 c4 12 	mov	&0x12c4,r15	
    6f82:	3f b0 40 00 	bit	#64,	r15	;#0x0040
    6f86:	f4 24       	jz	$+490    	;abs 0x7170
    6f88:	7f f0 bf ff 	and.b	#-65,	r15	;#0xffbf
    6f8c:	7f 90 3f 00 	cmp.b	#63,	r15	;#0x003f
    6f90:	02 24       	jz	$+6      	;abs 0x6f96
    6f92:	30 40 38 72 	br	#0x7238	
    6f96:	1b 42 40 14 	mov	&0x1440,r11	
    6f9a:	6e 4b       	mov.b	@r11,	r14	
    6f9c:	c2 4e ae 11 	mov.b	r14,	&0x11ae	
    6fa0:	1f 42 ac 11 	mov	&0x11ac,r15	
    6fa4:	2f 92       	cmp	#4,	r15	;r2 As==10
    6fa6:	2a 24       	jz	$+86     	;abs 0x6ffc
    6fa8:	3f 90 05 00 	cmp	#5,	r15	;#0x0005
    6fac:	04 2c       	jc	$+10     	;abs 0x6fb6
    6fae:	3f 90 03 00 	cmp	#3,	r15	;#0x0003
    6fb2:	d1 20       	jnz	$+420    	;abs 0x7156
    6fb4:	07 3c       	jmp	$+16     	;abs 0x6fc4
    6fb6:	3f 90 05 00 	cmp	#5,	r15	;#0x0005
    6fba:	41 24       	jz	$+132    	;abs 0x703e
    6fbc:	3f 90 06 00 	cmp	#6,	r15	;#0x0006
    6fc0:	ca 20       	jnz	$+406    	;abs 0x7156
    6fc2:	54 3c       	jmp	$+170    	;abs 0x706c
    6fc4:	a2 42 ac 11 	mov	#4,	&0x11ac	;r2 As==10
    6fc8:	c2 9e 7b 11 	cmp.b	r14,	&0x117b	
    6fcc:	42 24       	jz	$+134    	;abs 0x7052
    6fce:	41 28       	jnc	$+132    	;abs 0x7052
    6fd0:	f2 b2 20 00 	bit.b	#8,	&0x0020	;r2 As==11
    6fd4:	05 20       	jnz	$+12     	;abs 0x6fe0
    6fd6:	d2 b3 20 00 	bit.b	#1,	&0x0020	;r3 As==01
    6fda:	02 20       	jnz	$+6      	;abs 0x6fe0
    6fdc:	b0 12 c0 6a 	call	#0x6ac0	
    6fe0:	5f 42 ae 11 	mov.b	&0x11ae,r15	
    6fe4:	7f 90 92 ff 	cmp.b	#-110,	r15	;#0xff92
    6fe8:	34 2c       	jc	$+106    	;abs 0x7052
    6fea:	4f 93       	tst.b	r15		
    6fec:	32 24       	jz	$+102    	;abs 0x7052
    6fee:	6f 92       	cmp.b	#4,	r15	;r2 As==10
    6ff0:	30 28       	jnc	$+98     	;abs 0x7052
    6ff2:	7e 40 03 00 	mov.b	#3,	r14	;#0x0003
    6ff6:	0f 4b       	mov	r11,	r15	
    6ff8:	1f 53       	inc	r15		
    6ffa:	1d 3c       	jmp	$+60     	;abs 0x7036
    6ffc:	5e 4b 02 00 	mov.b	2(r11),	r14	;0x0002(r11)
    7000:	5f 4b 01 00 	mov.b	1(r11),	r15	;0x0001(r11)
    7004:	3f b2       	bit	#8,	r15	;r2 As==11
    7006:	25 20       	jnz	$+76     	;abs 0x7052
    7008:	3d 40 79 11 	mov	#4473,	r13	;#0x1179
    700c:	b0 12 fc 4b 	call	#0x4bfc	
    7010:	4f 93       	tst.b	r15		
    7012:	1f 20       	jnz	$+64     	;abs 0x7052
    7014:	5e 42 79 11 	mov.b	&0x1179,r14	
    7018:	5f 42 ae 11 	mov.b	&0x11ae,r15	
    701c:	3f 53       	add	#-1,	r15	;r3 As==11
    701e:	4d 4e       	mov.b	r14,	r13	
    7020:	0d 9f       	cmp	r15,	r13	
    7022:	17 34       	jge	$+48     	;abs 0x7052
    7024:	6e 92       	cmp.b	#4,	r14	;r2 As==10
    7026:	0b 28       	jnc	$+24     	;abs 0x703e
    7028:	b2 40 05 00 ac 11 	mov	#5,	&0x11ac	;#0x0005
    702e:	7e 50 fd ff 	add.b	#-3,	r14	;#0xfffd
    7032:	0f 4b       	mov	r11,	r15	
    7034:	2f 52       	add	#4,	r15	;r2 As==10
    7036:	b0 12 98 4e 	call	#0x4e98	
    703a:	30 40 38 72 	br	#0x7238	
    703e:	5e 42 ae 11 	mov.b	&0x11ae,r14	
    7042:	5d 42 79 11 	mov.b	&0x1179,r13	
    7046:	4f 4e       	mov.b	r14,	r15	
    7048:	4c 4d       	mov.b	r13,	r12	
    704a:	0f 8c       	sub	r12,	r15	
    704c:	3f 90 79 00 	cmp	#121,	r15	;#0x0079
    7050:	04 38       	jl	$+10     	;abs 0x705a
    7052:	b0 12 c0 6a 	call	#0x6ac0	
    7056:	30 40 38 72 	br	#0x7238	
    705a:	b2 40 06 00 ac 11 	mov	#6,	&0x11ac	;#0x0006
    7060:	4e 8d       	sub.b	r13,	r14	
    7062:	1f 42 40 14 	mov	&0x1440,r15	
    7066:	3f 50 1a 00 	add	#26,	r15	;#0x001a
    706a:	e5 3f       	jmp	$-52     	;abs 0x7036
    706c:	b0 12 02 46 	call	#0x4602	
    7070:	c2 93 b5 11 	tst.b	&0x11b5	
    7074:	03 20       	jnz	$+8      	;abs 0x707c
    7076:	5f 43       	mov.b	#1,	r15	;r3 As==01
    7078:	b0 12 ba 51 	call	#0x51ba	
    707c:	59 42 6c 15 	mov.b	&0x156c,r9	
    7080:	49 93       	tst.b	r9		
    7082:	28 24       	jz	$+82     	;abs 0x70d4
    7084:	f2 90 05 00 ae 11 	cmp.b	#5,	&0x11ae	;#0x0005
    708a:	2e 28       	jnc	$+94     	;abs 0x70e8
    708c:	5b 42 73 15 	mov.b	&0x1573,r11	
    7090:	0f 4b       	mov	r11,	r15	
    7092:	0f 5f       	rla	r15		
    7094:	0f 5f       	rla	r15		
    7096:	3f 50 4c 15 	add	#5452,	r15	;#0x154c
    709a:	2a 4f       	mov	@r15,	r10	
    709c:	1c 4f 02 00 	mov	2(r15),	r12	;0x0002(r15)
    70a0:	1d 42 40 14 	mov	&0x1440,r13	
    70a4:	cd 4a 93 00 	mov.b	r10,	147(r13);0x0093(r13)
    70a8:	0e 4c       	mov	r12,	r14	
    70aa:	0f 4a       	mov	r10,	r15	
    70ac:	8f 10       	swpb	r15		
    70ae:	8e 10       	swpb	r14		
    70b0:	4f ee       	xor.b	r14,	r15	
    70b2:	0f ee       	xor	r14,	r15	
    70b4:	cd 4f 92 00 	mov.b	r15,	146(r13);0x0092(r13)
    70b8:	cd 4c 91 00 	mov.b	r12,	145(r13);0x0091(r13)
    70bc:	8c 10       	swpb	r12		
    70be:	cd 4c 90 00 	mov.b	r12,	144(r13);0x0090(r13)
    70c2:	1b 53       	inc	r11		
    70c4:	7b f0 07 00 	and.b	#7,	r11	;#0x0007
    70c8:	c2 4b 73 15 	mov.b	r11,	&0x1573	
    70cc:	79 53       	add.b	#-1,	r9	;r3 As==11
    70ce:	c2 49 6c 15 	mov.b	r9,	&0x156c	
    70d2:	0a 3c       	jmp	$+22     	;abs 0x70e8
    70d4:	1f 42 40 14 	mov	&0x1440,r15	
    70d8:	ff 43 93 00 	mov.b	#-1,	147(r15);r3 As==11, 0x0093(r15)
    70dc:	ff 43 92 00 	mov.b	#-1,	146(r15);r3 As==11, 0x0092(r15)
    70e0:	ff 43 91 00 	mov.b	#-1,	145(r15);r3 As==11, 0x0091(r15)
    70e4:	ff 43 90 00 	mov.b	#-1,	144(r15);r3 As==11, 0x0090(r15)
    70e8:	1f 42 40 14 	mov	&0x1440,r15	
    70ec:	5e 42 ae 11 	mov.b	&0x11ae,r14	
    70f0:	5d 42 79 11 	mov.b	&0x1179,r13	
    70f4:	0e 8d       	sub	r13,	r14	
    70f6:	0e 5f       	add	r15,	r14	
    70f8:	ce 93 19 00 	tst.b	25(r14)	;0x0019(r14)
    70fc:	29 34       	jge	$+84     	;abs 0x7150
    70fe:	08 93       	tst	r8		
    7100:	27 24       	jz	$+80     	;abs 0x7150
    7102:	5e 4f 01 00 	mov.b	1(r15),	r14	;0x0001(r15)
    7106:	7e f0 07 00 	and.b	#7,	r14	;#0x0007
    710a:	6e 93       	cmp.b	#2,	r14	;r3 As==10
    710c:	19 20       	jnz	$+52     	;abs 0x7140
    710e:	b2 90 06 00 22 11 	cmp	#6,	&0x1122	;#0x0006
    7114:	8d 20       	jnz	$+284    	;abs 0x7230
    7116:	1e 42 6a 13 	mov	&0x136a,r14	
    711a:	2e 4e       	mov	@r14,	r14	
    711c:	de 9f 03 00 03 00 	cmp.b	3(r15),	3(r14)	;0x0003(r15), 0x0003(r14)
    7122:	86 20       	jnz	$+270    	;abs 0x7230
    7124:	b2 f0 ef ff 86 01 	and	#-17,	&0x0186	;#0xffef
    712a:	5e 4f 01 00 	mov.b	1(r15),	r14	;0x0001(r15)
    712e:	3e f0 10 00 	and	#16,	r14	;#0x0010
    7132:	5f 43       	mov.b	#1,	r15	;r3 As==01
    7134:	01 20       	jnz	$+4      	;abs 0x7138
    7136:	4f 43       	clr.b	r15		
    7138:	4e 43       	clr.b	r14		
    713a:	b0 12 40 6f 	call	#0x6f40	
    713e:	78 3c       	jmp	$+242    	;abs 0x7230
    7140:	c2 93 66 13 	tst.b	&0x1366	
    7144:	05 20       	jnz	$+12     	;abs 0x7150
    7146:	7f 40 19 00 	mov.b	#25,	r15	;#0x0019
    714a:	b0 12 4c 4e 	call	#0x4e4c	
    714e:	74 3c       	jmp	$+234    	;abs 0x7238
    7150:	b0 12 66 6a 	call	#0x6a66	
    7154:	71 3c       	jmp	$+228    	;abs 0x7238
    7156:	c2 43 c0 11 	mov.b	#0,	&0x11c0	;r3 As==00
    715a:	b0 12 02 46 	call	#0x4602	
    715e:	5f 43       	mov.b	#1,	r15	;r3 As==01
    7160:	b0 12 ba 51 	call	#0x51ba	
    7164:	c2 93 66 13 	tst.b	&0x1366	
    7168:	67 24       	jz	$+208    	;abs 0x7238
    716a:	b0 12 14 50 	call	#0x5014	
    716e:	64 3c       	jmp	$+202    	;abs 0x7238
    7170:	7f 90 3e 00 	cmp.b	#62,	r15	;#0x003e
    7174:	61 20       	jnz	$+196    	;abs 0x7238
    7176:	b0 12 b4 45 	call	#0x45b4	
    717a:	1f 42 6a 13 	mov	&0x136a,r15	
    717e:	2f 4f       	mov	@r15,	r15	
    7180:	0b 9f       	cmp	r15,	r11	
    7182:	0c 20       	jnz	$+26     	;abs 0x719c
    7184:	b0 12 ac 45 	call	#0x45ac	
    7188:	1f 42 6a 13 	mov	&0x136a,r15	
    718c:	5e 4f 06 00 	mov.b	6(r15),	r14	;0x0006(r15)
    7190:	2f 4f       	mov	@r15,	r15	
    7192:	c2 93 cd 14 	tst.b	&0x14cd	
    7196:	50 24       	jz	$+162    	;abs 0x7238
    7198:	1f 53       	inc	r15		
    719a:	0e 3c       	jmp	$+30     	;abs 0x71b8
    719c:	1f 53       	inc	r15		
    719e:	0b 9f       	cmp	r15,	r11	
    71a0:	0e 20       	jnz	$+30     	;abs 0x71be
    71a2:	b0 12 ac 45 	call	#0x45ac	
    71a6:	1f 42 6a 13 	mov	&0x136a,r15	
    71aa:	5e 4f 07 00 	mov.b	7(r15),	r14	;0x0007(r15)
    71ae:	1f 4f 02 00 	mov	2(r15),	r15	;0x0002(r15)
    71b2:	c2 93 cd 14 	tst.b	&0x14cd	
    71b6:	40 24       	jz	$+130    	;abs 0x7238
    71b8:	b0 12 00 4f 	call	#0x4f00	
    71bc:	3d 3c       	jmp	$+124    	;abs 0x7238
    71be:	b2 40 03 00 22 11 	mov	#3,	&0x1122	;#0x0003
    71c4:	1f 42 2a 11 	mov	&0x112a,r15	
    71c8:	3f 90 09 00 	cmp	#9,	r15	;#0x0009
    71cc:	08 24       	jz	$+18     	;abs 0x71de
    71ce:	34 28       	jnc	$+106    	;abs 0x7238
    71d0:	3f 90 0a 00 	cmp	#10,	r15	;#0x000a
    71d4:	27 24       	jz	$+80     	;abs 0x7224
    71d6:	3f 90 0b 00 	cmp	#11,	r15	;#0x000b
    71da:	2e 20       	jnz	$+94     	;abs 0x7238
    71dc:	26 3c       	jmp	$+78     	;abs 0x722a
    71de:	b2 40 0c 00 2a 11 	mov	#12,	&0x112a	;#0x000c
    71e4:	1c 42 74 11 	mov	&0x1174,r12	
    71e8:	1d 42 76 11 	mov	&0x1176,r13	
    71ec:	0c 93       	tst	r12		
    71ee:	0b 20       	jnz	$+24     	;abs 0x7206
    71f0:	0d 93       	tst	r13		
    71f2:	09 20       	jnz	$+20     	;abs 0x7206
    71f4:	b2 40 0f 00 2a 11 	mov	#15,	&0x112a	;#0x000f
    71fa:	4f 43       	clr.b	r15		
    71fc:	b0 12 a8 58 	call	#0x58a8	
    7200:	b0 12 ee 52 	call	#0x52ee	
    7204:	19 3c       	jmp	$+52     	;abs 0x7238
    7206:	1e 42 c8 11 	mov	&0x11c8,r14	
    720a:	1f 42 ca 11 	mov	&0x11ca,r15	
    720e:	c2 93 1e 11 	tst.b	&0x111e	
    7212:	12 20       	jnz	$+38     	;abs 0x7238
    7214:	e2 43 1e 11 	mov.b	#2,	&0x111e	;r3 As==10
    7218:	3e 50 f0 ff 	add	#-16,	r14	;#0xfff0
    721c:	3f 63       	addc	#-1,	r15	;r3 As==11
    721e:	b0 12 22 57 	call	#0x5722	
    7222:	0a 3c       	jmp	$+22     	;abs 0x7238
    7224:	b0 12 0a 5c 	call	#0x5c0a	
    7228:	07 3c       	jmp	$+16     	;abs 0x7238
    722a:	b0 12 4c 5c 	call	#0x5c4c	
    722e:	04 3c       	jmp	$+10     	;abs 0x7238
    7230:	c2 93 68 13 	tst.b	&0x1368	
    7234:	85 23       	jnz	$-244    	;abs 0x7140
    7236:	8c 3f       	jmp	$-230    	;abs 0x7150
    7238:	38 41       	pop	r8		
    723a:	39 41       	pop	r9		
    723c:	3a 41       	pop	r10		
    723e:	3b 41       	pop	r11		
    7240:	30 41       	ret			

00007242 <Msp430TimerP__1__Event__fired>:
    7242:	0b 12       	push	r11		
    7244:	0a 12       	push	r10		
    7246:	09 12       	push	r9		
    7248:	08 12       	push	r8		
    724a:	07 12       	push	r7		
    724c:	21 83       	decd	r1		
    724e:	7f 92       	cmp.b	#8,	r15	;r2 As==11
    7250:	02 28       	jnc	$+6      	;abs 0x7256
    7252:	30 40 c6 76 	br	#0x76c6	
    7256:	4f 4f       	mov.b	r15,	r15	
    7258:	0f 5f       	rla	r15		
    725a:	10 4f d0 99 	br	-26160(r15)	;0x99d0(r15)
    725e:	1f 42 82 01 	mov	&0x0182,r15	
    7262:	8f 10       	swpb	r15		
    7264:	5f f3       	and.b	#1,	r15	;r3 As==01
    7266:	04 24       	jz	$+10     	;abs 0x7270
    7268:	1f 42 92 01 	mov	&0x0192,r15	
    726c:	30 40 c6 76 	br	#0x76c6	
    7270:	b2 f0 ef ff 82 01 	and	#-17,	&0x0182	;#0xffef
    7276:	82 93 ac 12 	tst	&0x12ac	
    727a:	08 20       	jnz	$+18     	;abs 0x728c
    727c:	82 93 ae 12 	tst	&0x12ae	
    7280:	05 20       	jnz	$+12     	;abs 0x728c
    7282:	4f 43       	clr.b	r15		
    7284:	b0 12 4c 4e 	call	#0x4e4c	
    7288:	30 40 c6 76 	br	#0x76c6	
    728c:	b0 12 36 5e 	call	#0x5e36	
    7290:	30 40 c6 76 	br	#0x76c6	
    7294:	1f 42 84 01 	mov	&0x0184,r15	
    7298:	8f 10       	swpb	r15		
    729a:	5f f3       	and.b	#1,	r15	;r3 As==01
    729c:	02 20       	jnz	$+6      	;abs 0x72a2
    729e:	30 40 c6 76 	br	#0x76c6	
    72a2:	18 42 94 01 	mov	&0x0194,r8	
    72a6:	b2 f0 fe ff 84 01 	and	#-2,	&0x0184	;#0xfffe
    72ac:	b2 f0 fd ff 84 01 	and	#-3,	&0x0184	;#0xfffd
    72b2:	b0 12 aa 53 	call	#0x53aa	
    72b6:	0e 5e       	rla	r14		
    72b8:	0f 6f       	rlc	r15		
    72ba:	0a 4e       	mov	r14,	r10	
    72bc:	0b 4f       	mov	r15,	r11	
    72be:	3a 50 f6 ff 	add	#-10,	r10	;#0xfff6
    72c2:	3b 63       	addc	#-1,	r11	;r3 As==11
    72c4:	09 48       	mov	r8,	r9	
    72c6:	09 59       	rla	r9		
    72c8:	0c 4e       	mov	r14,	r12	
    72ca:	0c 89       	sub	r9,	r12	
    72cc:	0d 43       	clr	r13		
    72ce:	0a 8c       	sub	r12,	r10	
    72d0:	0b 7d       	subc	r13,	r11	
    72d2:	1f 42 22 11 	mov	&0x1122,r15	
    72d6:	2f 92       	cmp	#4,	r15	;r2 As==10
    72d8:	04 24       	jz	$+10     	;abs 0x72e2
    72da:	3f 90 05 00 	cmp	#5,	r15	;#0x0005
    72de:	4e 20       	jnz	$+158    	;abs 0x737c
    72e0:	26 3c       	jmp	$+78     	;abs 0x732e
    72e2:	b2 40 05 00 22 11 	mov	#5,	&0x1122	;#0x0005
    72e8:	d2 43 bc 11 	mov.b	#1,	&0x11bc	;r3 As==01
    72ec:	c2 43 20 11 	mov.b	#0,	&0x1120	;r3 As==00
    72f0:	6f 43       	mov.b	#2,	r15	;r3 As==10
    72f2:	b0 12 1a 46 	call	#0x461a	
    72f6:	1f 42 6a 13 	mov	&0x136a,r15	
    72fa:	1e 4f 04 00 	mov	4(r15),	r14	;0x0004(r15)
    72fe:	ce 4a 03 00 	mov.b	r10,	3(r14)	;0x0003(r14)
    7302:	0f 4a       	mov	r10,	r15	
    7304:	0d 4b       	mov	r11,	r13	
    7306:	8f 10       	swpb	r15		
    7308:	8d 10       	swpb	r13		
    730a:	4f ed       	xor.b	r13,	r15	
    730c:	0f ed       	xor	r13,	r15	
    730e:	ce 4f 02 00 	mov.b	r15,	2(r14)	;0x0002(r14)
    7312:	0f 4b       	mov	r11,	r15	
    7314:	ce 4b 01 00 	mov.b	r11,	1(r14)	;0x0001(r14)
    7318:	8f 10       	swpb	r15		
    731a:	ce 4f 00 00 	mov.b	r15,	0(r14)	;0x0000(r14)
    731e:	b2 f0 ef ff 86 01 	and	#-17,	&0x0186	;#0xffef
    7324:	e2 b3 1c 00 	bit.b	#2,	&0x001c	;r3 As==10
    7328:	02 24       	jz	$+6      	;abs 0x732e
    732a:	30 40 c6 76 	br	#0x76c6	
    732e:	c2 43 bc 11 	mov.b	#0,	&0x11bc	;r3 As==00
    7332:	5f 43       	mov.b	#1,	r15	;r3 As==01
    7334:	b0 12 1a 46 	call	#0x461a	
    7338:	1f 42 6a 13 	mov	&0x136a,r15	
    733c:	2f 4f       	mov	@r15,	r15	
    733e:	5f 4f 01 00 	mov.b	1(r15),	r15	;0x0001(r15)
    7342:	3f f0 20 00 	and	#32,	r15	;#0x0020
    7346:	11 24       	jz	$+36     	;abs 0x736a
    7348:	b2 40 06 00 22 11 	mov	#6,	&0x1122	;#0x0006
    734e:	b0 12 aa 53 	call	#0x53aa	
    7352:	82 4e 40 11 	mov	r14,	&0x1140	
    7356:	82 4f 42 11 	mov	r15,	&0x1142	
    735a:	b2 40 4b 00 b6 11 	mov	#75,	&0x11b6	;#0x004b
    7360:	82 43 b8 11 	mov	#0,	&0x11b8	;r3 As==00
    7364:	b0 12 c4 57 	call	#0x57c4	
    7368:	04 3c       	jmp	$+10     	;abs 0x7372
    736a:	4e 43       	clr.b	r14		
    736c:	4f 43       	clr.b	r15		
    736e:	b0 12 40 6f 	call	#0x6f40	
    7372:	e2 b3 1c 00 	bit.b	#2,	&0x001c	;r3 As==10
    7376:	02 20       	jnz	$+6      	;abs 0x737c
    7378:	30 40 c6 76 	br	#0x76c6	
    737c:	c2 93 20 11 	tst.b	&0x1120	
    7380:	2c 20       	jnz	$+90     	;abs 0x73da
    7382:	c2 93 bc 11 	tst.b	&0x11bc	
    7386:	29 20       	jnz	$+84     	;abs 0x73da
    7388:	d2 43 bc 11 	mov.b	#1,	&0x11bc	;r3 As==01
    738c:	6f 43       	mov.b	#2,	r15	;r3 As==10
    738e:	b0 12 1a 46 	call	#0x461a	
    7392:	5d 42 1c 00 	mov.b	&0x001c,r13	
    7396:	82 93 ac 11 	tst	&0x11ac	
    739a:	12 24       	jz	$+38     	;abs 0x73c0
    739c:	5e 42 6c 15 	mov.b	&0x156c,r14	
    73a0:	7e 92       	cmp.b	#8,	r14	;r2 As==11
    73a2:	0e 2c       	jc	$+30     	;abs 0x73c0
    73a4:	4f 4e       	mov.b	r14,	r15	
    73a6:	5f 52 73 15 	add.b	&0x1573,r15	
    73aa:	3f f0 07 00 	and	#7,	r15	;#0x0007
    73ae:	0f 5f       	rla	r15		
    73b0:	0f 5f       	rla	r15		
    73b2:	8f 4a 4c 15 	mov	r10,	5452(r15);0x154c(r15)
    73b6:	8f 4b 4e 15 	mov	r11,	5454(r15);0x154e(r15)
    73ba:	5e 53       	inc.b	r14		
    73bc:	c2 4e 6c 15 	mov.b	r14,	&0x156c	
    73c0:	d2 43 20 11 	mov.b	#1,	&0x1120	;r3 As==01
    73c4:	82 48 c6 12 	mov	r8,	&0x12c6	
    73c8:	e2 b3 1c 00 	bit.b	#2,	&0x001c	;r3 As==10
    73cc:	02 24       	jz	$+6      	;abs 0x73d2
    73ce:	30 40 c6 76 	br	#0x76c6	
    73d2:	4f 4d       	mov.b	r13,	r15	
    73d4:	6f f3       	and.b	#2,	r15	;r3 As==10
    73d6:	5b 43       	mov.b	#1,	r11	;r3 As==01
    73d8:	01 20       	jnz	$+4      	;abs 0x73dc
    73da:	4b 43       	clr.b	r11		
    73dc:	d2 93 bc 11 	cmp.b	#1,	&0x11bc	;r3 As==01
    73e0:	02 24       	jz	$+6      	;abs 0x73e6
    73e2:	30 40 c6 76 	br	#0x76c6	
    73e6:	c2 43 bc 11 	mov.b	#0,	&0x11bc	;r3 As==00
    73ea:	5f 43       	mov.b	#1,	r15	;r3 As==01
    73ec:	b0 12 1a 46 	call	#0x461a	
    73f0:	c2 43 20 11 	mov.b	#0,	&0x1120	;r3 As==00
    73f4:	4b 93       	tst.b	r11		
    73f6:	02 24       	jz	$+6      	;abs 0x73fc
    73f8:	30 40 c6 76 	br	#0x76c6	
    73fc:	0f 48       	mov	r8,	r15	
    73fe:	1f 82 c6 12 	sub	&0x12c6,r15	
    7402:	0f 5f       	rla	r15		
    7404:	3f 90 14 00 	cmp	#20,	r15	;#0x0014
    7408:	02 28       	jnc	$+6      	;abs 0x740e
    740a:	30 40 c6 76 	br	#0x76c6	
    740e:	82 93 ac 11 	tst	&0x11ac	
    7412:	02 20       	jnz	$+6      	;abs 0x7418
    7414:	30 40 c6 76 	br	#0x76c6	
    7418:	5f 42 6c 15 	mov.b	&0x156c,r15	
    741c:	4f 93       	tst.b	r15		
    741e:	02 20       	jnz	$+6      	;abs 0x7424
    7420:	30 40 c6 76 	br	#0x76c6	
    7424:	7f 53       	add.b	#-1,	r15	;r3 As==11
    7426:	c2 4f 6c 15 	mov.b	r15,	&0x156c	
    742a:	30 40 c6 76 	br	#0x76c6	
    742e:	1f 42 86 01 	mov	&0x0186,r15	
    7432:	8f 10       	swpb	r15		
    7434:	5f f3       	and.b	#1,	r15	;r3 As==01
    7436:	04 24       	jz	$+10     	;abs 0x7440
    7438:	1f 42 96 01 	mov	&0x0196,r15	
    743c:	30 40 c6 76 	br	#0x76c6	
    7440:	b2 f0 ef ff 86 01 	and	#-17,	&0x0186	;#0xffef
    7446:	82 93 b6 11 	tst	&0x11b6	
    744a:	24 20       	jnz	$+74     	;abs 0x7494
    744c:	82 93 b8 11 	tst	&0x11b8	
    7450:	21 20       	jnz	$+68     	;abs 0x7494
    7452:	1f 42 22 11 	mov	&0x1122,r15	
    7456:	2f 92       	cmp	#4,	r15	;r2 As==10
    7458:	02 2c       	jc	$+6      	;abs 0x745e
    745a:	30 40 c6 76 	br	#0x76c6	
    745e:	3f 90 06 00 	cmp	#6,	r15	;#0x0006
    7462:	04 28       	jnc	$+10     	;abs 0x746c
    7464:	02 24       	jz	$+6      	;abs 0x746a
    7466:	30 40 c6 76 	br	#0x76c6	
    746a:	0d 3c       	jmp	$+28     	;abs 0x7486
    746c:	b0 12 b4 45 	call	#0x45b4	
    7470:	b0 12 ac 45 	call	#0x45ac	
    7474:	7f 40 09 00 	mov.b	#9,	r15	;#0x0009
    7478:	b0 12 50 46 	call	#0x4650	
    747c:	b0 12 b4 45 	call	#0x45b4	
    7480:	7e 40 07 00 	mov.b	#7,	r14	;#0x0007
    7484:	02 3c       	jmp	$+6      	;abs 0x748a
    7486:	7e 40 0b 00 	mov.b	#11,	r14	;#0x000b
    748a:	4f 43       	clr.b	r15		
    748c:	b0 12 40 6f 	call	#0x6f40	
    7490:	30 40 c6 76 	br	#0x76c6	
    7494:	b0 12 c4 57 	call	#0x57c4	
    7498:	30 40 c6 76 	br	#0x76c6	
    749c:	1f 42 88 01 	mov	&0x0188,r15	
    74a0:	8f 10       	swpb	r15		
    74a2:	5f f3       	and.b	#1,	r15	;r3 As==01
    74a4:	04 24       	jz	$+10     	;abs 0x74ae
    74a6:	1f 42 98 01 	mov	&0x0198,r15	
    74aa:	30 40 c6 76 	br	#0x76c6	
    74ae:	b2 f0 ef ff 88 01 	and	#-17,	&0x0188	;#0xffef
    74b4:	82 93 c2 11 	tst	&0x11c2	
    74b8:	34 20       	jnz	$+106    	;abs 0x7522
    74ba:	82 93 c4 11 	tst	&0x11c4	
    74be:	31 20       	jnz	$+100    	;abs 0x7522
    74c0:	d2 43 f1 14 	mov.b	#1,	&0x14f1	;r3 As==01
    74c4:	3b 40 ee 14 	mov	#5358,	r11	;#0x14ee
    74c8:	3a 40 d6 14 	mov	#5334,	r10	;#0x14d6
    74cc:	47 43       	clr.b	r7		
    74ce:	cb 93 00 00 	tst.b	0(r11)		;0x0000(r11)
    74d2:	1b 24       	jz	$+56     	;abs 0x750a
    74d4:	28 4a       	mov	@r10,	r8	
    74d6:	19 4a 02 00 	mov	2(r10),	r9	;0x0002(r10)
    74da:	b0 12 aa 53 	call	#0x53aa	
    74de:	0e 88       	sub	r8,	r14	
    74e0:	0f 79       	subc	r9,	r15	
    74e2:	1f 9a 06 00 	cmp	6(r10),	r15	;0x0006(r10)
    74e6:	11 28       	jnc	$+36     	;abs 0x750a
    74e8:	03 20       	jnz	$+8      	;abs 0x74f0
    74ea:	1e 9a 04 00 	cmp	4(r10),	r14	;0x0004(r10)
    74ee:	0d 28       	jnc	$+28     	;abs 0x750a
    74f0:	cb 43 00 00 	mov.b	#0,	0(r11)	;r3 As==00, 0x0000(r11)
    74f4:	57 93       	cmp.b	#1,	r7	;r3 As==01
    74f6:	04 24       	jz	$+10     	;abs 0x7500
    74f8:	67 93       	cmp.b	#2,	r7	;r3 As==10
    74fa:	04 24       	jz	$+10     	;abs 0x7504
    74fc:	4f 43       	clr.b	r15		
    74fe:	03 3c       	jmp	$+8      	;abs 0x7506
    7500:	5f 43       	mov.b	#1,	r15	;r3 As==01
    7502:	01 3c       	jmp	$+4      	;abs 0x7506
    7504:	6f 43       	mov.b	#2,	r15	;r3 As==10
    7506:	b0 12 88 65 	call	#0x6588	
    750a:	57 53       	inc.b	r7		
    750c:	1b 53       	inc	r11		
    750e:	3a 52       	add	#8,	r10	;r2 As==11
    7510:	77 90 03 00 	cmp.b	#3,	r7	;#0x0003
    7514:	dc 23       	jnz	$-70     	;abs 0x74ce
    7516:	c2 43 f1 14 	mov.b	#0,	&0x14f1	;r3 As==00
    751a:	b0 12 3a 55 	call	#0x553a	
    751e:	30 40 c6 76 	br	#0x76c6	
    7522:	b0 12 56 54 	call	#0x5456	
    7526:	30 40 c6 76 	br	#0x76c6	
    752a:	1f 42 8a 01 	mov	&0x018a,r15	
    752e:	8f 10       	swpb	r15		
    7530:	5f f3       	and.b	#1,	r15	;r3 As==01
    7532:	03 24       	jz	$+8      	;abs 0x753a
    7534:	1f 42 9a 01 	mov	&0x019a,r15	
    7538:	c6 3c       	jmp	$+398    	;abs 0x76c6
    753a:	b2 f0 ef ff 8a 01 	and	#-17,	&0x018a	;#0xffef
    7540:	82 93 8a 15 	tst	&0x158a	
    7544:	a7 20       	jnz	$+336    	;abs 0x7694
    7546:	82 93 8c 15 	tst	&0x158c	
    754a:	a4 20       	jnz	$+330    	;abs 0x7694
    754c:	5f 42 1e 11 	mov.b	&0x111e,r15	
    7550:	6f 93       	cmp.b	#2,	r15	;r3 As==10
    7552:	0a 24       	jz	$+22     	;abs 0x7568
    7554:	7f 90 03 00 	cmp.b	#3,	r15	;#0x0003
    7558:	10 24       	jz	$+34     	;abs 0x757a
    755a:	5f 93       	cmp.b	#1,	r15	;r3 As==01
    755c:	b4 20       	jnz	$+362    	;abs 0x76c6
    755e:	c2 43 1e 11 	mov.b	#0,	&0x111e	;r3 As==00
    7562:	b0 12 e0 6c 	call	#0x6ce0	
    7566:	af 3c       	jmp	$+352    	;abs 0x76c6
    7568:	c2 43 1e 11 	mov.b	#0,	&0x111e	;r3 As==00
    756c:	b2 40 0f 00 2a 11 	mov	#15,	&0x112a	;#0x000f
    7572:	4f 43       	clr.b	r15		
    7574:	b0 12 a8 58 	call	#0x58a8	
    7578:	57 3c       	jmp	$+176    	;abs 0x7628
    757a:	c2 43 1e 11 	mov.b	#0,	&0x111e	;r3 As==00
    757e:	1f 42 2a 11 	mov	&0x112a,r15	
    7582:	3f 90 0d 00 	cmp	#13,	r15	;#0x000d
    7586:	41 24       	jz	$+132    	;abs 0x760a
    7588:	3f 90 0e 00 	cmp	#14,	r15	;#0x000e
    758c:	9c 20       	jnz	$+314    	;abs 0x76c6
    758e:	b0 12 2a 59 	call	#0x592a	
    7592:	b2 40 11 00 2a 11 	mov	#17,	&0x112a	;#0x0011
    7598:	0f 41       	mov	r1,	r15	
    759a:	b0 12 78 64 	call	#0x6478	
    759e:	4f 93       	tst.b	r15		
    75a0:	fb 23       	jnz	$-8      	;abs 0x7598
    75a2:	f2 b0 10 00 20 00 	bit.b	#16,	&0x0020	;#0x0010
    75a8:	05 24       	jz	$+12     	;abs 0x75b4
    75aa:	5f 43       	mov.b	#1,	r15	;r3 As==01
    75ac:	b0 12 a8 58 	call	#0x58a8	
    75b0:	4f 93       	tst.b	r15		
    75b2:	3a 24       	jz	$+118    	;abs 0x7628
    75b4:	b0 12 ee 50 	call	#0x50ee	
    75b8:	b0 12 28 51 	call	#0x5128	
    75bc:	b2 40 0b 00 2a 11 	mov	#11,	&0x112a	;#0x000b
    75c2:	1f 42 80 11 	mov	&0x1180,r15	
    75c6:	5e 4f 03 00 	mov.b	3(r15),	r14	;0x0003(r15)
    75ca:	5e 53       	inc.b	r14		
    75cc:	cf 4e 03 00 	mov.b	r14,	3(r15)	;0x0003(r15)
    75d0:	cf 9e 02 00 	cmp.b	r14,	2(r15)	;0x0002(r15)
    75d4:	04 2c       	jc	$+10     	;abs 0x75de
    75d6:	82 93 ca 14 	tst	&0x14ca	
    75da:	0e 20       	jnz	$+30     	;abs 0x75f8
    75dc:	74 3c       	jmp	$+234    	;abs 0x76c6
    75de:	6d 4f       	mov.b	@r15,	r13	
    75e0:	5d 53       	inc.b	r13		
    75e2:	cf 4d 00 00 	mov.b	r13,	0(r15)	;0x0000(r15)
    75e6:	5e 4f 01 00 	mov.b	1(r15),	r14	;0x0001(r15)
    75ea:	4e 9d       	cmp.b	r13,	r14	
    75ec:	02 2c       	jc	$+6      	;abs 0x75f2
    75ee:	cf 4e 00 00 	mov.b	r14,	0(r15)	;0x0000(r15)
    75f2:	b0 12 4c 5c 	call	#0x5c4c	
    75f6:	67 3c       	jmp	$+208    	;abs 0x76c6
    75f8:	c2 43 82 11 	mov.b	#0,	&0x1182	;r3 As==00
    75fc:	b0 12 8a 51 	call	#0x518a	
    7600:	b0 12 3e 52 	call	#0x523e	
    7604:	a2 42 2a 11 	mov	#4,	&0x112a	;r2 As==10
    7608:	5e 3c       	jmp	$+190    	;abs 0x76c6
    760a:	b0 12 2a 59 	call	#0x592a	
    760e:	b2 40 10 00 2a 11 	mov	#16,	&0x112a	;#0x0010
    7614:	0f 41       	mov	r1,	r15	
    7616:	b0 12 78 64 	call	#0x6478	
    761a:	4f 93       	tst.b	r15		
    761c:	fb 23       	jnz	$-8      	;abs 0x7614
    761e:	5f 43       	mov.b	#1,	r15	;r3 As==01
    7620:	b0 12 a8 58 	call	#0x58a8	
    7624:	4f 93       	tst.b	r15		
    7626:	03 20       	jnz	$+8      	;abs 0x762e
    7628:	b0 12 ee 52 	call	#0x52ee	
    762c:	4c 3c       	jmp	$+154    	;abs 0x76c6
    762e:	b0 12 ee 50 	call	#0x50ee	
    7632:	b0 12 28 51 	call	#0x5128	
    7636:	1f 42 80 11 	mov	&0x1180,r15	
    763a:	5e 4f 03 00 	mov.b	3(r15),	r14	;0x0003(r15)
    763e:	5e 53       	inc.b	r14		
    7640:	cf 4e 03 00 	mov.b	r14,	3(r15)	;0x0003(r15)
    7644:	cf 9e 02 00 	cmp.b	r14,	2(r15)	;0x0002(r15)
    7648:	05 2c       	jc	$+12     	;abs 0x7654
    764a:	1b 42 ca 14 	mov	&0x14ca,r11	
    764e:	0b 93       	tst	r11		
    7650:	0e 20       	jnz	$+30     	;abs 0x766e
    7652:	39 3c       	jmp	$+116    	;abs 0x76c6
    7654:	6d 4f       	mov.b	@r15,	r13	
    7656:	5d 53       	inc.b	r13		
    7658:	cf 4d 00 00 	mov.b	r13,	0(r15)	;0x0000(r15)
    765c:	5e 4f 01 00 	mov.b	1(r15),	r14	;0x0001(r15)
    7660:	4e 9d       	cmp.b	r13,	r14	
    7662:	02 2c       	jc	$+6      	;abs 0x7668
    7664:	cf 4e 00 00 	mov.b	r14,	0(r15)	;0x0000(r15)
    7668:	b0 12 0a 5c 	call	#0x5c0a	
    766c:	2c 3c       	jmp	$+90     	;abs 0x76c6
    766e:	c2 43 82 11 	mov.b	#0,	&0x1182	;r3 As==00
    7672:	b0 12 8a 51 	call	#0x518a	
    7676:	b0 12 3e 52 	call	#0x523e	
    767a:	a2 42 2a 11 	mov	#4,	&0x112a	;r2 As==10
    767e:	b0 12 5e 52 	call	#0x525e	
    7682:	7f 90 0c 00 	cmp.b	#12,	r15	;#0x000c
    7686:	1f 20       	jnz	$+64     	;abs 0x76c6
    7688:	5d 43       	mov.b	#1,	r13	;r3 As==01
    768a:	4e 43       	clr.b	r14		
    768c:	0f 4b       	mov	r11,	r15	
    768e:	b0 12 2c 6e 	call	#0x6e2c	
    7692:	19 3c       	jmp	$+52     	;abs 0x76c6
    7694:	b0 12 3e 56 	call	#0x563e	
    7698:	16 3c       	jmp	$+46     	;abs 0x76c6
    769a:	1f 42 8c 01 	mov	&0x018c,r15	
    769e:	8f 10       	swpb	r15		
    76a0:	5f f3       	and.b	#1,	r15	;r3 As==01
    76a2:	11 24       	jz	$+36     	;abs 0x76c6
    76a4:	1f 42 9c 01 	mov	&0x019c,r15	
    76a8:	0e 3c       	jmp	$+30     	;abs 0x76c6
    76aa:	1f 42 8e 01 	mov	&0x018e,r15	
    76ae:	8f 10       	swpb	r15		
    76b0:	5f f3       	and.b	#1,	r15	;r3 As==01
    76b2:	09 24       	jz	$+20     	;abs 0x76c6
    76b4:	1f 42 9e 01 	mov	&0x019e,r15	
    76b8:	06 3c       	jmp	$+14     	;abs 0x76c6
    76ba:	92 53 a8 12 	inc	&0x12a8	
    76be:	92 53 6c 13 	inc	&0x136c	
    76c2:	82 63 6e 13 	adc	&0x136e	
    76c6:	21 53       	incd	r1		
    76c8:	37 41       	pop	r7		
    76ca:	38 41       	pop	r8		
    76cc:	39 41       	pop	r9		
    76ce:	3a 41       	pop	r10		
    76d0:	3b 41       	pop	r11		
    76d2:	30 41       	ret			

000076d4 <DispatchUnslottedCsmaP__RxEnableStateChange__notify.isra.195>:
    76d4:	7f 40 0c 00 	mov.b	#12,	r15	;#0x000c
    76d8:	b0 12 6c 59 	call	#0x596c	
    76dc:	4f 93       	tst.b	r15		
    76de:	05 20       	jnz	$+12     	;abs 0x76ea
    76e0:	7f 40 0c 00 	mov.b	#12,	r15	;#0x000c
    76e4:	b0 12 ae 6d 	call	#0x6dae	
    76e8:	30 41       	ret			
    76ea:	b0 12 a4 6b 	call	#0x6ba4	
    76ee:	30 41       	ret			

000076f0 <PibP__PIBUpdate__notify>:
    76f0:	0b 12       	push	r11		
    76f2:	0b 4e       	mov	r14,	r11	
    76f4:	7f 90 50 00 	cmp.b	#80,	r15	;#0x0050
    76f8:	1d 24       	jz	$+60     	;abs 0x7734
    76fa:	7f 90 51 00 	cmp.b	#81,	r15	;#0x0051
    76fe:	08 2c       	jc	$+18     	;abs 0x7710
    7700:	6f 93       	cmp.b	#2,	r15	;r3 As==10
    7702:	18 24       	jz	$+50     	;abs 0x7734
    7704:	7f 90 03 00 	cmp.b	#3,	r15	;#0x0003
    7708:	15 24       	jz	$+44     	;abs 0x7734
    770a:	4f 93       	tst.b	r15		
    770c:	13 24       	jz	$+40     	;abs 0x7734
    770e:	14 3c       	jmp	$+42     	;abs 0x7738
    7710:	7f 90 53 00 	cmp.b	#83,	r15	;#0x0053
    7714:	0f 24       	jz	$+32     	;abs 0x7734
    7716:	7f 90 f0 ff 	cmp.b	#-16,	r15	;#0xfff0
    771a:	0c 24       	jz	$+26     	;abs 0x7734
    771c:	7f 90 52 00 	cmp.b	#82,	r15	;#0x0052
    7720:	0b 20       	jnz	$+24     	;abs 0x7738
    7722:	b0 12 32 4e 	call	#0x4e32	
    7726:	e2 4b 5f 13 	mov.b	@r11,	&0x135f	
    772a:	b0 12 44 4e 	call	#0x4e44	
    772e:	b0 12 d4 76 	call	#0x76d4	
    7732:	02 3c       	jmp	$+6      	;abs 0x7738
    7734:	b0 12 02 63 	call	#0x6302	
    7738:	3b 41       	pop	r11		
    773a:	30 41       	ret			

0000773c <PibP__MLME_SET__phyCurrentChannel>:
    773c:	0b 12       	push	r11		
    773e:	4d 4f       	mov.b	r15,	r13	
    7740:	4b 4f       	mov.b	r15,	r11	
    7742:	7b 50 e0 ff 	add.b	#-32,	r11	;#0xffe0
    7746:	4c 4f       	mov.b	r15,	r12	
    7748:	1e 43       	mov	#1,	r14	;r3 As==01
    774a:	0f 43       	clr	r15		
    774c:	05 3c       	jmp	$+12     	;abs 0x7758
    774e:	0e 5e       	rla	r14		
    7750:	0f 6f       	rlc	r15		
    7752:	7c 53       	add.b	#-1,	r12	;r3 As==11
    7754:	4c 9b       	cmp.b	r11,	r12	
    7756:	03 24       	jz	$+8      	;abs 0x775e
    7758:	4c 93       	tst.b	r12		
    775a:	f9 23       	jnz	$-12     	;abs 0x774e
    775c:	02 3c       	jmp	$+6      	;abs 0x7762
    775e:	0e 43       	clr	r14		
    7760:	0f 43       	clr	r15		
    7762:	3e f0 00 f8 	and	#-2048,	r14	;#0xf800
    7766:	3f f0 ff 07 	and	#2047,	r15	;#0x07ff
    776a:	0e 93       	tst	r14		
    776c:	02 20       	jnz	$+6      	;abs 0x7772
    776e:	0f 93       	tst	r15		
    7770:	09 24       	jz	$+20     	;abs 0x7784
    7772:	c2 4d d9 11 	mov.b	r13,	&0x11d9	
    7776:	3e 40 d9 11 	mov	#4569,	r14	;#0x11d9
    777a:	4f 43       	clr.b	r15		
    777c:	b0 12 f0 76 	call	#0x76f0	
    7780:	0f 43       	clr	r15		
    7782:	02 3c       	jmp	$+6      	;abs 0x7788
    7784:	3f 40 e8 00 	mov	#232,	r15	;#0x00e8
    7788:	3b 41       	pop	r11		
    778a:	30 41       	ret			

0000778c <EndDeviceC__startApp>:
    778c:	0b 12       	push	r11		
    778e:	0a 12       	push	r10		
    7790:	09 12       	push	r9		
    7792:	04 12       	push	r4		
    7794:	04 41       	mov	r1,	r4	
    7796:	34 52       	add	#8,	r4	;r2 As==11
    7798:	31 50 f0 ff 	add	#-16,	r1	;#0xfff0
    779c:	b2 40 99 99 96 13 	mov	#-26215,&0x1396	;#0x9999
    77a2:	7f 40 1a 00 	mov.b	#26,	r15	;#0x001a
    77a6:	b0 12 3c 77 	call	#0x773c	
    77aa:	c2 43 d1 11 	mov.b	#0,	&0x11d1	;r3 As==00
    77ae:	3e 40 d1 11 	mov	#4561,	r14	;#0x11d1
    77b2:	7f 40 42 00 	mov.b	#66,	r15	;#0x0042
    77b6:	b0 12 f0 76 	call	#0x76f0	
    77ba:	b2 40 34 12 ea 11 	mov	#4660,	&0x11ea	;#0x1234
    77c0:	3e 40 ea 11 	mov	#4586,	r14	;#0x11ea
    77c4:	7f 40 50 00 	mov.b	#80,	r15	;#0x0050
    77c8:	b0 12 f0 76 	call	#0x76f0	
    77cc:	b2 40 99 99 e8 11 	mov	#-26215,&0x11e8	;#0x9999
    77d2:	3e 40 e8 11 	mov	#4584,	r14	;#0x11e8
    77d6:	7f 40 4b 00 	mov.b	#75,	r15	;#0x004b
    77da:	b0 12 f0 76 	call	#0x76f0	
    77de:	59 42 88 11 	mov.b	&0x1188,r9	
    77e2:	94 42 96 13 f0 ff 	mov	&0x1396,-16(r4)	;0xfff0(r4)
    77e8:	94 42 98 13 f2 ff 	mov	&0x1398,-14(r4)	;0xfff2(r4)
    77ee:	94 42 9a 13 f4 ff 	mov	&0x139a,-12(r4)	;0xfff4(r4)
    77f4:	94 42 9c 13 f6 ff 	mov	&0x139c,-10(r4)	;0xfff6(r4)
    77fa:	c2 93 dc 11 	tst.b	&0x11dc	
    77fe:	77 20       	jnz	$+240    	;abs 0x78ee
    7800:	c2 93 c6 11 	tst.b	&0x11c6	
    7804:	74 20       	jnz	$+234    	;abs 0x78ee
    7806:	b0 12 d6 47 	call	#0x47d6	
    780a:	0b 4f       	mov	r15,	r11	
    780c:	0f 93       	tst	r15		
    780e:	6f 24       	jz	$+224    	;abs 0x78ee
    7810:	b0 12 0e 48 	call	#0x480e	
    7814:	0a 4f       	mov	r15,	r10	
    7816:	0f 93       	tst	r15		
    7818:	04 20       	jnz	$+10     	;abs 0x7822
    781a:	0f 4b       	mov	r11,	r15	
    781c:	b0 12 d2 4b 	call	#0x4bd2	
    7820:	66 3c       	jmp	$+206    	;abs 0x78ee
    7822:	f2 40 eb ff b3 11 	mov.b	#-21,	&0x11b3	;#0xffeb
    7828:	b2 43 32 15 	mov	#-1,	&0x1532	;r3 As==11
    782c:	7f 40 1a 00 	mov.b	#26,	r15	;#0x001a
    7830:	b0 12 3c 77 	call	#0x773c	
    7834:	b2 40 34 12 ea 11 	mov	#4660,	&0x11ea	;#0x1234
    783a:	3e 40 ea 11 	mov	#4586,	r14	;#0x11ea
    783e:	7f 40 50 00 	mov.b	#80,	r15	;#0x0050
    7842:	b0 12 f0 76 	call	#0x76f0	
    7846:	e2 43 bf 11 	mov.b	#2,	&0x11bf	;r3 As==10
    784a:	92 44 f0 ff e8 11 	mov	-16(r4),&0x11e8	;0xfff0(r4)
    7850:	3e 40 e8 11 	mov	#4584,	r14	;#0x11e8
    7854:	7f 40 4b 00 	mov.b	#75,	r15	;#0x004b
    7858:	b0 12 f0 76 	call	#0x76f0	
    785c:	8b 4a 00 00 	mov	r10,	0(r11)	;0x0000(r11)
    7860:	0f 4a       	mov	r10,	r15	
    7862:	3f 50 1a 00 	add	#26,	r15	;#0x001a
    7866:	8b 4f 04 00 	mov	r15,	4(r11)	;0x0004(r11)
    786a:	94 42 9e 13 e8 ff 	mov	&0x139e,-24(r4)	;0xffe8(r4)
    7870:	94 42 a0 13 ea ff 	mov	&0x13a0,-22(r4)	;0xffea(r4)
    7876:	94 42 a2 13 ec ff 	mov	&0x13a2,-20(r4)	;0xffec(r4)
    787c:	94 42 a4 13 ee ff 	mov	&0x13a4,-18(r4)	;0xffee(r4)
    7882:	43 12       	push.b	#0		;r3 As==00
    7884:	3f 40 e8 ff 	mov	#-24,	r15	;#0xffe8
    7888:	0f 54       	add	r4,	r15	
    788a:	0f 12       	push	r15		
    788c:	33 12       	push	#-1		;r3 As==11
    788e:	70 12 03 00 	push.b	#3		;#0x0003
    7892:	0c 44       	mov	r4,	r12	
    7894:	3c 50 f0 ff 	add	#-16,	r12	;#0xfff0
    7898:	3d 40 34 12 	mov	#4660,	r13	;#0x1234
    789c:	6e 43       	mov.b	#2,	r14	;r3 As==10
    789e:	0f 4a       	mov	r10,	r15	
    78a0:	1f 53       	inc	r15		
    78a2:	b0 12 48 48 	call	#0x4848	
    78a6:	31 52       	add	#8,	r1	;r2 As==11
    78a8:	cb 4f 06 00 	mov.b	r15,	6(r11)	;0x0006(r11)
    78ac:	2f 4b       	mov	@r11,	r15	
    78ae:	ff 40 23 00 01 00 	mov.b	#35,	1(r15)	;#0x0023, 0x0001(r15)
    78b4:	2f 4b       	mov	@r11,	r15	
    78b6:	ff 40 c8 ff 02 00 	mov.b	#-56,	2(r15)	;#0xffc8, 0x0002(r15)
    78bc:	d2 43 90 15 	mov.b	#1,	&0x1590	;r3 As==01
    78c0:	c2 49 91 15 	mov.b	r9,	&0x1591	
    78c4:	bb 40 90 15 02 00 	mov	#5520,	2(r11)	;#0x1590, 0x0002(r11)
    78ca:	eb 43 07 00 	mov.b	#2,	7(r11)	;r3 As==10, 0x0007(r11)
    78ce:	d2 43 c6 11 	mov.b	#1,	&0x11c6	;r3 As==01
    78d2:	0e 4b       	mov	r11,	r14	
    78d4:	5f 43       	mov.b	#1,	r15	;r3 As==01
    78d6:	b0 12 2c 50 	call	#0x502c	
    78da:	0f 93       	tst	r15		
    78dc:	08 24       	jz	$+18     	;abs 0x78ee
    78de:	c2 43 c6 11 	mov.b	#0,	&0x11c6	;r3 As==00
    78e2:	0f 4b       	mov	r11,	r15	
    78e4:	b0 12 d2 4b 	call	#0x4bd2	
    78e8:	0f 4a       	mov	r10,	r15	
    78ea:	b0 12 a2 4b 	call	#0x4ba2	
    78ee:	30 12 96 13 	push	#5014		;#0x1396
    78f2:	3c 40 34 12 	mov	#4660,	r12	;#0x1234
    78f6:	6d 43       	mov.b	#2,	r13	;r3 As==10
    78f8:	6e 43       	mov.b	#2,	r14	;r3 As==10
    78fa:	3f 40 04 12 	mov	#4612,	r15	;#0x1204
    78fe:	b0 12 7a 4d 	call	#0x4d7a	
    7902:	31 50 12 00 	add	#18,	r1	;#0x0012
    7906:	34 41       	pop	r4		
    7908:	39 41       	pop	r9		
    790a:	3a 41       	pop	r10		
    790c:	3b 41       	pop	r11		
    790e:	30 41       	ret			

00007910 <AssociateP__DataRequest__pollDone.part.223>:
    7910:	f2 f0 fd ff e6 13 	and.b	#-3,	&0x13e6	;#0xfffd
    7916:	c2 43 c6 11 	mov.b	#0,	&0x11c6	;r3 As==00
    791a:	3e 40 ea 11 	mov	#4586,	r14	;#0x11ea
    791e:	be 43 00 00 	mov	#-1,	0(r14)	;r3 As==11, 0x0000(r14)
    7922:	7f 40 50 00 	mov.b	#80,	r15	;#0x0050
    7926:	b0 12 f0 76 	call	#0x76f0	
    792a:	b0 12 8c 77 	call	#0x778c	
    792e:	30 41       	ret			

00007930 <PollP__DataRequest__pollDone>:
    7930:	4f 93       	tst.b	r15		
    7932:	05 20       	jnz	$+12     	;abs 0x793e
    7934:	c2 93 c6 11 	tst.b	&0x11c6	
    7938:	02 24       	jz	$+6      	;abs 0x793e
    793a:	b0 12 10 79 	call	#0x7910	
    793e:	30 41       	ret			

00007940 <DisassociateP__resetPanValuesInPib>:
    7940:	0b 12       	push	r11		
    7942:	3b 40 ea 11 	mov	#4586,	r11	;#0x11ea
    7946:	bb 43 00 00 	mov	#-1,	0(r11)	;r3 As==11, 0x0000(r11)
    794a:	0e 4b       	mov	r11,	r14	
    794c:	7f 40 50 00 	mov.b	#80,	r15	;#0x0050
    7950:	b0 12 f0 76 	call	#0x76f0	
    7954:	0e 4b       	mov	r11,	r14	
    7956:	2e 53       	incd	r14		
    7958:	be 43 00 00 	mov	#-1,	0(r14)	;r3 As==11, 0x0000(r14)
    795c:	7f 40 53 00 	mov.b	#83,	r15	;#0x0053
    7960:	b0 12 f0 76 	call	#0x76f0	
    7964:	0e 4b       	mov	r11,	r14	
    7966:	3e 50 ec ff 	add	#-20,	r14	;#0xffec
    796a:	ce 43 00 00 	mov.b	#0,	0(r14)	;r3 As==00, 0x0000(r14)
    796e:	7f 40 56 00 	mov.b	#86,	r15	;#0x0056
    7972:	b0 12 f0 76 	call	#0x76f0	
    7976:	0e 4b       	mov	r11,	r14	
    7978:	2e 83       	decd	r14		
    797a:	be 43 00 00 	mov	#-1,	0(r14)	;r3 As==11, 0x0000(r14)
    797e:	7f 40 4b 00 	mov.b	#75,	r15	;#0x004b
    7982:	b0 12 f0 76 	call	#0x76f0	
    7986:	0e 4b       	mov	r11,	r14	
    7988:	3e 50 0e 00 	add	#14,	r14	;#0x000e
    798c:	8e 43 00 00 	mov	#0,	0(r14)	;r3 As==00, 0x0000(r14)
    7990:	8e 43 02 00 	mov	#0,	2(r14)	;r3 As==00, 0x0002(r14)
    7994:	8e 43 04 00 	mov	#0,	4(r14)	;r3 As==00, 0x0004(r14)
    7998:	8e 43 06 00 	mov	#0,	6(r14)	;r3 As==00, 0x0006(r14)
    799c:	7f 40 4a 00 	mov.b	#74,	r15	;#0x004a
    79a0:	b0 12 f0 76 	call	#0x76f0	
    79a4:	3b 41       	pop	r11		
    79a6:	30 41       	ret			

000079a8 <DisassociateP__DisassociationDirectTx__transmitDone>:
    79a8:	0b 12       	push	r11		
    79aa:	0a 12       	push	r10		
    79ac:	31 82       	sub	#8,	r1	;r2 As==11
    79ae:	0b 4f       	mov	r15,	r11	
    79b0:	0a 4e       	mov	r14,	r10	
    79b2:	2e 4f       	mov	@r15,	r14	
    79b4:	3e 50 06 00 	add	#6,	r14	;#0x0006
    79b8:	0f 41       	mov	r1,	r15	
    79ba:	b0 12 f4 46 	call	#0x46f4	
    79be:	2f 4b       	mov	@r11,	r15	
    79c0:	b0 12 a2 4b 	call	#0x4ba2	
    79c4:	0f 4b       	mov	r11,	r15	
    79c6:	b0 12 d2 4b 	call	#0x4bd2	
    79ca:	c2 43 b4 12 	mov.b	#0,	&0x12b4	;r3 As==00
    79ce:	0a 93       	tst	r10		
    79d0:	03 24       	jz	$+8      	;abs 0x79d8
    79d2:	3a 90 e9 00 	cmp	#233,	r10	;#0x00e9
    79d6:	02 20       	jnz	$+6      	;abs 0x79dc
    79d8:	b0 12 40 79 	call	#0x7940	
    79dc:	31 52       	add	#8,	r1	;r2 As==11
    79de:	3a 41       	pop	r10		
    79e0:	3b 41       	pop	r11		
    79e2:	30 41       	ret			

000079e4 <IndirectTxP__FrameTx__transmitDone>:
    79e4:	0b 12       	push	r11		
    79e6:	31 82       	sub	#8,	r1	;r2 As==11
    79e8:	0b 4e       	mov	r14,	r11	
    79ea:	0e 4d       	mov	r13,	r14	
    79ec:	5f 93       	cmp.b	#1,	r15	;r3 As==01
    79ee:	24 24       	jz	$+74     	;abs 0x7a38
    79f0:	03 28       	jnc	$+8      	;abs 0x79f8
    79f2:	6f 93       	cmp.b	#2,	r15	;r3 As==10
    79f4:	28 20       	jnz	$+82     	;abs 0x7a46
    79f6:	24 3c       	jmp	$+74     	;abs 0x7a40
    79f8:	2e 4b       	mov	@r11,	r14	
    79fa:	5f 4e 02 00 	mov.b	2(r14),	r15	;0x0002(r14)
    79fe:	3f f0 0c 00 	and	#12,	r15	;#0x000c
    7a02:	3f 92       	cmp	#8,	r15	;r2 As==11
    7a04:	09 20       	jnz	$+20     	;abs 0x7a18
    7a06:	5f 4e 07 00 	mov.b	7(r14),	r15	;0x0007(r14)
    7a0a:	8f 10       	swpb	r15		
    7a0c:	5e 4e 06 00 	mov.b	6(r14),	r14	;0x0006(r14)
    7a10:	0f de       	bis	r14,	r15	
    7a12:	81 4f 00 00 	mov	r15,	0(r1)	;0x0000(r1)
    7a16:	05 3c       	jmp	$+12     	;abs 0x7a22
    7a18:	3e 50 06 00 	add	#6,	r14	;#0x0006
    7a1c:	0f 41       	mov	r1,	r15	
    7a1e:	b0 12 f4 46 	call	#0x46f4	
    7a22:	1f 4b 02 00 	mov	2(r11),	r15	;0x0002(r11)
    7a26:	ff 43 00 00 	mov.b	#-1,	0(r15)	;r3 As==11, 0x0000(r15)
    7a2a:	2f 4b       	mov	@r11,	r15	
    7a2c:	b0 12 a2 4b 	call	#0x4ba2	
    7a30:	0f 4b       	mov	r11,	r15	
    7a32:	b0 12 d2 4b 	call	#0x4bd2	
    7a36:	07 3c       	jmp	$+16     	;abs 0x7a46
    7a38:	0f 4b       	mov	r11,	r15	
    7a3a:	b0 12 a8 79 	call	#0x79a8	
    7a3e:	03 3c       	jmp	$+8      	;abs 0x7a46
    7a40:	0f 4b       	mov	r11,	r15	
    7a42:	b0 12 a8 60 	call	#0x60a8	
    7a46:	31 52       	add	#8,	r1	;r2 As==11
    7a48:	3b 41       	pop	r11		
    7a4a:	30 41       	ret			

00007a4c <DispatchQueueP__0__FrameTx__transmitDone>:
    7a4c:	0b 12       	push	r11		
    7a4e:	0a 12       	push	r10		
    7a50:	31 50 e8 ff 	add	#-24,	r1	;#0xffe8
    7a54:	0b 4e       	mov	r14,	r11	
    7a56:	0a 4d       	mov	r13,	r10	
    7a58:	7f 53       	add.b	#-1,	r15	;r3 As==11
    7a5a:	7f 92       	cmp.b	#8,	r15	;r2 As==11
    7a5c:	bc 2c       	jc	$+378    	;abs 0x7bd6
    7a5e:	4f 4f       	mov.b	r15,	r15	
    7a60:	0f 5f       	rla	r15		
    7a62:	10 4f e0 99 	br	-26144(r15)	;0x99e0(r15)
    7a66:	2f 4e       	mov	@r14,	r15	
    7a68:	b0 12 a2 4b 	call	#0x4ba2	
    7a6c:	0f 4b       	mov	r11,	r15	
    7a6e:	b0 12 d2 4b 	call	#0x4bd2	
    7a72:	0a 93       	tst	r10		
    7a74:	0a 24       	jz	$+22     	;abs 0x7a8a
    7a76:	c2 43 c6 11 	mov.b	#0,	&0x11c6	;r3 As==00
    7a7a:	4a 93       	tst.b	r10		
    7a7c:	03 20       	jnz	$+8      	;abs 0x7a84
    7a7e:	b0 12 08 64 	call	#0x6408	
    7a82:	a9 3c       	jmp	$+340    	;abs 0x7bd6
    7a84:	b0 12 8c 77 	call	#0x778c	
    7a88:	a6 3c       	jmp	$+334    	;abs 0x7bd6
    7a8a:	5f 42 e7 11 	mov.b	&0x11e7,r15	
    7a8e:	02 12       	push	r2		
    7a90:	32 c2       	dint			
    7a92:	03 43       	nop			
    7a94:	82 4f 32 01 	mov	r15,	&0x0132	
    7a98:	b2 40 c0 03 38 01 	mov	#960,	&0x0138	;#0x03c0
    7a9e:	1d 42 3a 01 	mov	&0x013a,r13	
    7aa2:	32 41       	pop	r2		
    7aa4:	0e 4d       	mov	r13,	r14	
    7aa6:	8e 10       	swpb	r14		
    7aa8:	8e 11       	sxt	r14		
    7aaa:	8e 10       	swpb	r14		
    7aac:	8e 11       	sxt	r14		
    7aae:	5f 43       	mov.b	#1,	r15	;r3 As==01
    7ab0:	b0 12 0e 54 	call	#0x540e	
    7ab4:	90 3c       	jmp	$+290    	;abs 0x7bd6
    7ab6:	0e 4d       	mov	r13,	r14	
    7ab8:	0f 4b       	mov	r11,	r15	
    7aba:	b0 12 a8 79 	call	#0x79a8	
    7abe:	8b 3c       	jmp	$+280    	;abs 0x7bd6
    7ac0:	2f 4e       	mov	@r14,	r15	
    7ac2:	5e 4f 02 00 	mov.b	2(r15),	r14	;0x0002(r15)
    7ac6:	3e f0 0c 00 	and	#12,	r14	;#0x000c
    7aca:	3e 90 0c 00 	cmp	#12,	r14	;#0x000c
    7ace:	03 24       	jz	$+8      	;abs 0x7ad6
    7ad0:	7e 40 07 00 	mov.b	#7,	r14	;#0x0007
    7ad4:	02 3c       	jmp	$+6      	;abs 0x7ada
    7ad6:	7e 40 0d 00 	mov.b	#13,	r14	;#0x000d
    7ada:	4e 4e       	mov.b	r14,	r14	
    7adc:	0e 5f       	add	r15,	r14	
    7ade:	1e 53       	inc	r14		
    7ae0:	0f 41       	mov	r1,	r15	
    7ae2:	3f 50 10 00 	add	#16,	r15	;#0x0010
    7ae6:	b0 12 f4 46 	call	#0x46f4	
    7aea:	2f 4b       	mov	@r11,	r15	
    7aec:	b0 12 a2 4b 	call	#0x4ba2	
    7af0:	0f 4b       	mov	r11,	r15	
    7af2:	b0 12 d2 4b 	call	#0x4bd2	
    7af6:	c2 43 b4 12 	mov.b	#0,	&0x12b4	;r3 As==00
    7afa:	0a 93       	tst	r10		
    7afc:	03 24       	jz	$+8      	;abs 0x7b04
    7afe:	3a 90 e9 00 	cmp	#233,	r10	;#0x00e9
    7b02:	69 20       	jnz	$+212    	;abs 0x7bd6
    7b04:	b0 12 40 79 	call	#0x7940	
    7b08:	66 3c       	jmp	$+206    	;abs 0x7bd6
    7b0a:	0e 4d       	mov	r13,	r14	
    7b0c:	0f 4b       	mov	r11,	r15	
    7b0e:	b0 12 a8 60 	call	#0x60a8	
    7b12:	61 3c       	jmp	$+196    	;abs 0x7bd6
    7b14:	b2 53 3a 14 	add	#-1,	&0x143a	;r3 As==11
    7b18:	5f 4e 09 00 	mov.b	9(r14),	r15	;0x0009(r14)
    7b1c:	7f 90 fe ff 	cmp.b	#-2,	r15	;#0xfffe
    7b20:	04 24       	jz	$+10     	;abs 0x7b2a
    7b22:	7f 93       	cmp.b	#-1,	r15	;r3 As==11
    7b24:	02 24       	jz	$+6      	;abs 0x7b2a
    7b26:	b0 12 30 79 	call	#0x7930	
    7b2a:	2f 4b       	mov	@r11,	r15	
    7b2c:	b0 12 a2 4b 	call	#0x4ba2	
    7b30:	0f 4b       	mov	r11,	r15	
    7b32:	b0 12 d2 4b 	call	#0x4bd2	
    7b36:	4f 3c       	jmp	$+160    	;abs 0x7bd6
    7b38:	3e 90 c6 13 	cmp	#5062,	r14	;#0x13c6
    7b3c:	03 20       	jnz	$+8      	;abs 0x7b44
    7b3e:	ce 43 08 00 	mov.b	#0,	8(r14)	;r3 As==00, 0x0008(r14)
    7b42:	49 3c       	jmp	$+148    	;abs 0x7bd6
    7b44:	3e 40 66 11 	mov	#4454,	r14	;#0x1166
    7b48:	0f 43       	clr	r15		
    7b4a:	2b 9e       	cmp	@r14,	r11	
    7b4c:	04 20       	jnz	$+10     	;abs 0x7b56
    7b4e:	0f 5f       	rla	r15		
    7b50:	8f 43 66 11 	mov	#0,	4454(r15);r3 As==00, 0x1166(r15)
    7b54:	05 3c       	jmp	$+12     	;abs 0x7b60
    7b56:	1f 53       	inc	r15		
    7b58:	2e 53       	incd	r14		
    7b5a:	3f 90 07 00 	cmp	#7,	r15	;#0x0007
    7b5e:	f5 23       	jnz	$-20     	;abs 0x7b4a
    7b60:	82 43 88 15 	mov	#0,	&0x1588	;r3 As==00
    7b64:	5f 42 46 11 	mov.b	&0x1146,r15	
    7b68:	7f f0 7f 00 	and.b	#127,	r15	;#0x007f
    7b6c:	cb 4f 08 00 	mov.b	r15,	8(r11)	;0x0008(r11)
    7b70:	f2 53 70 13 	add.b	#-1,	&0x1370	;r3 As==11
    7b74:	2e 4b       	mov	@r11,	r14	
    7b76:	5e 4e 02 00 	mov.b	2(r14),	r14	;0x0002(r14)
    7b7a:	3e f0 0c 00 	and	#12,	r14	;#0x000c
    7b7e:	3e 92       	cmp	#8,	r14	;r2 As==11
    7b80:	03 20       	jnz	$+8      	;abs 0x7b88
    7b82:	f2 53 cc 14 	add.b	#-1,	&0x14cc	;r3 As==11
    7b86:	05 3c       	jmp	$+12     	;abs 0x7b92
    7b88:	3e 90 0c 00 	cmp	#12,	r14	;#0x000c
    7b8c:	02 20       	jnz	$+6      	;abs 0x7b92
    7b8e:	f2 53 3b 15 	add.b	#-1,	&0x153b	;r3 As==11
    7b92:	0d 4a       	mov	r10,	r13	
    7b94:	0e 4b       	mov	r11,	r14	
    7b96:	b0 12 e4 79 	call	#0x79e4	
    7b9a:	7f 40 09 00 	mov.b	#9,	r15	;#0x0009
    7b9e:	b0 12 4c 4e 	call	#0x4e4c	
    7ba2:	19 3c       	jmp	$+52     	;abs 0x7bd6
    7ba4:	2a 4e       	mov	@r14,	r10	
    7ba6:	c2 93 32 11 	tst.b	&0x1132	
    7baa:	15 24       	jz	$+44     	;abs 0x7bd6
    7bac:	0e 4a       	mov	r10,	r14	
    7bae:	3e 50 06 00 	add	#6,	r14	;#0x0006
    7bb2:	0f 41       	mov	r1,	r15	
    7bb4:	3f 52       	add	#8,	r15	;r2 As==11
    7bb6:	b0 12 f4 46 	call	#0x46f4	
    7bba:	0e 4a       	mov	r10,	r14	
    7bbc:	3e 50 10 00 	add	#16,	r14	;#0x0010
    7bc0:	0f 41       	mov	r1,	r15	
    7bc2:	b0 12 f4 46 	call	#0x46f4	
    7bc6:	2f 4b       	mov	@r11,	r15	
    7bc8:	b0 12 a2 4b 	call	#0x4ba2	
    7bcc:	0f 4b       	mov	r11,	r15	
    7bce:	b0 12 d2 4b 	call	#0x4bd2	
    7bd2:	c2 43 32 11 	mov.b	#0,	&0x1132	;r3 As==00
    7bd6:	31 50 18 00 	add	#24,	r1	;#0x0018
    7bda:	3a 41       	pop	r10		
    7bdc:	3b 41       	pop	r11		
    7bde:	30 41       	ret			

00007be0 <DispatchUnslottedCsmaP__FrameTx__transmitDone>:
    7be0:	0b 12       	push	r11		
    7be2:	0a 12       	push	r10		
    7be4:	0b 4f       	mov	r15,	r11	
    7be6:	0a 4e       	mov	r14,	r10	
    7be8:	f2 f0 fe ff d5 14 	and.b	#-2,	&0x14d5	;#0xfffe
    7bee:	c2 93 2c 11 	tst.b	&0x112c	
    7bf2:	0b 24       	jz	$+24     	;abs 0x7c0a
    7bf4:	b0 12 3c 4c 	call	#0x4c3c	
    7bf8:	0d 4a       	mov	r10,	r13	
    7bfa:	0e 4b       	mov	r11,	r14	
    7bfc:	5f 4b 08 00 	mov.b	8(r11),	r15	;0x0008(r11)
    7c00:	b0 12 4c 7a 	call	#0x7a4c	
    7c04:	7f 42       	mov.b	#8,	r15	;r2 As==11
    7c06:	b0 12 4c 4e 	call	#0x4e4c	
    7c0a:	3a 41       	pop	r10		
    7c0c:	3b 41       	pop	r11		
    7c0e:	30 41       	ret			

00007c10 <DispatchUnslottedCsmaP__Reset__init>:
    7c10:	1f 42 7e 11 	mov	&0x117e,r15	
    7c14:	0f 93       	tst	r15		
    7c16:	04 24       	jz	$+10     	;abs 0x7c20
    7c18:	3e 40 f1 00 	mov	#241,	r14	;#0x00f1
    7c1c:	b0 12 e0 7b 	call	#0x7be0	
    7c20:	1f 42 94 15 	mov	&0x1594,r15	
    7c24:	0f 93       	tst	r15		
    7c26:	04 24       	jz	$+10     	;abs 0x7c30
    7c28:	3e 40 f1 00 	mov	#241,	r14	;#0x00f1
    7c2c:	b0 12 e0 7b 	call	#0x7be0	
    7c30:	82 43 94 15 	mov	#0,	&0x1594	;r3 As==00
    7c34:	82 43 7e 11 	mov	#0,	&0x117e	;r3 As==00
    7c38:	f2 f0 fd ff fa 13 	and.b	#-3,	&0x13fa	;#0xfffd
    7c3e:	4f 43       	clr.b	r15		
    7c40:	30 41       	ret			

00007c42 <ScanP__nextIteration>:
    7c42:	0b 12       	push	r11		
    7c44:	0a 12       	push	r10		
    7c46:	09 12       	push	r9		
    7c48:	08 12       	push	r8		
    7c4a:	07 12       	push	r7		
    7c4c:	5b 42 c0 14 	mov.b	&0x14c0,r11	
    7c50:	1e 43       	mov	#1,	r14	;r3 As==01
    7c52:	0f 43       	clr	r15		
    7c54:	4d 4b       	mov.b	r11,	r13	
    7c56:	7d f0 1f 00 	and.b	#31,	r13	;#0x001f
    7c5a:	4d 93       	tst.b	r13		
    7c5c:	04 24       	jz	$+10     	;abs 0x7c66
    7c5e:	0e 5e       	rla	r14		
    7c60:	0f 6f       	rlc	r15		
    7c62:	7d 53       	add.b	#-1,	r13	;r3 As==11
    7c64:	fa 3f       	jmp	$-10     	;abs 0x7c5a
    7c66:	5a 42 3a 15 	mov.b	&0x153a,r10	
    7c6a:	4a 93       	tst.b	r10		
    7c6c:	1b 20       	jnz	$+56     	;abs 0x7ca4
    7c6e:	1c 42 34 15 	mov	&0x1534,r12	
    7c72:	1d 42 36 15 	mov	&0x1536,r13	
    7c76:	3c f0 00 f8 	and	#-2048,	r12	;#0xf800
    7c7a:	3d f0 ff 07 	and	#2047,	r13	;#0x07ff
    7c7e:	03 3c       	jmp	$+8      	;abs 0x7c86
    7c80:	0e 5e       	rla	r14		
    7c82:	0f 6f       	rlc	r15		
    7c84:	4b 47       	mov.b	r7,	r11	
    7c86:	7b 90 1b 00 	cmp.b	#27,	r11	;#0x001b
    7c8a:	0a 2c       	jc	$+22     	;abs 0x7ca0
    7c8c:	47 4b       	mov.b	r11,	r7	
    7c8e:	57 53       	inc.b	r7		
    7c90:	08 4e       	mov	r14,	r8	
    7c92:	09 4f       	mov	r15,	r9	
    7c94:	08 fc       	and	r12,	r8	
    7c96:	09 fd       	and	r13,	r9	
    7c98:	08 93       	tst	r8		
    7c9a:	02 20       	jnz	$+6      	;abs 0x7ca0
    7c9c:	09 93       	tst	r9		
    7c9e:	f0 27       	jz	$-30     	;abs 0x7c80
    7ca0:	c2 4b c0 14 	mov.b	r11,	&0x14c0	
    7ca4:	5d 42 c0 14 	mov.b	&0x14c0,r13	
    7ca8:	7d 90 1b 00 	cmp.b	#27,	r13	;#0x001b
    7cac:	69 2c       	jc	$+212    	;abs 0x7d80
    7cae:	4a 93       	tst.b	r10		
    7cb0:	69 20       	jnz	$+212    	;abs 0x7d84
    7cb2:	4f 4d       	mov.b	r13,	r15	
    7cb4:	b0 12 3c 77 	call	#0x773c	
    7cb8:	5f 42 6e 15 	mov.b	&0x156e,r15	
    7cbc:	5f 93       	cmp.b	#1,	r15	;r3 As==01
    7cbe:	0e 24       	jz	$+30     	;abs 0x7cdc
    7cc0:	40 28       	jnc	$+130    	;abs 0x7d42
    7cc2:	6f 93       	cmp.b	#2,	r15	;r3 As==10
    7cc4:	04 24       	jz	$+10     	;abs 0x7cce
    7cc6:	7f 90 03 00 	cmp.b	#3,	r15	;#0x0003
    7cca:	a1 20       	jnz	$+324    	;abs 0x7e0e
    7ccc:	07 3c       	jmp	$+16     	;abs 0x7cdc
    7cce:	b0 12 5e 52 	call	#0x525e	
    7cd2:	4f 93       	tst.b	r15		
    7cd4:	9c 20       	jnz	$+314    	;abs 0x7e0e
    7cd6:	b0 12 fc 6a 	call	#0x6afc	
    7cda:	99 3c       	jmp	$+308    	;abs 0x7e0e
    7cdc:	1b 42 36 11 	mov	&0x1136,r11	
    7ce0:	b0 12 5e 52 	call	#0x525e	
    7ce4:	4f 93       	tst.b	r15		
    7ce6:	93 20       	jnz	$+296    	;abs 0x7e0e
    7ce8:	0b 93       	tst	r11		
    7cea:	91 24       	jz	$+292    	;abs 0x7e0e
    7cec:	8b 93 00 00 	tst	0(r11)		;0x0000(r11)
    7cf0:	8e 24       	jz	$+286    	;abs 0x7e0e
    7cf2:	8b 93 02 00 	tst	2(r11)		;0x0002(r11)
    7cf6:	03 20       	jnz	$+8      	;abs 0x7cfe
    7cf8:	cb 93 07 00 	tst.b	7(r11)		;0x0007(r11)
    7cfc:	88 20       	jnz	$+274    	;abs 0x7e0e
    7cfe:	8b 93 04 00 	tst	4(r11)		;0x0004(r11)
    7d02:	85 24       	jz	$+268    	;abs 0x7e0e
    7d04:	5f 4b 06 00 	mov.b	6(r11),	r15	;0x0006(r11)
    7d08:	5e 4b 07 00 	mov.b	7(r11),	r14	;0x0007(r11)
    7d0c:	0f 5e       	add	r14,	r15	
    7d0e:	3f 90 7e 00 	cmp	#126,	r15	;#0x007e
    7d12:	7d 34       	jge	$+252    	;abs 0x7e0e
    7d14:	b0 12 32 4e 	call	#0x4e32	
    7d18:	a2 92 2a 11 	cmp	#4,	&0x112a	;r2 As==10
    7d1c:	1f 20       	jnz	$+64     	;abs 0x7d5c
    7d1e:	b2 40 09 00 2a 11 	mov	#9,	&0x112a	;#0x0009
    7d24:	b0 12 44 4e 	call	#0x4e44	
    7d28:	82 4b ca 14 	mov	r11,	&0x14ca	
    7d2c:	82 43 c8 11 	mov	#0,	&0x11c8	;r3 As==00
    7d30:	82 43 ca 11 	mov	#0,	&0x11ca	;r3 As==00
    7d34:	82 43 74 11 	mov	#0,	&0x1174	;r3 As==00
    7d38:	82 43 76 11 	mov	#0,	&0x1176	;r3 As==00
    7d3c:	b0 12 08 6a 	call	#0x6a08	
    7d40:	66 3c       	jmp	$+206    	;abs 0x7e0e
    7d42:	1a 42 b8 12 	mov	&0x12b8,r10	
    7d46:	1b 42 ba 12 	mov	&0x12ba,r11	
    7d4a:	b0 12 32 4e 	call	#0x4e32	
    7d4e:	1e 42 2a 11 	mov	&0x112a,r14	
    7d52:	3e 90 03 00 	cmp	#3,	r14	;#0x0003
    7d56:	02 24       	jz	$+6      	;abs 0x7d5c
    7d58:	2e 92       	cmp	#4,	r14	;r2 As==10
    7d5a:	03 24       	jz	$+8      	;abs 0x7d62
    7d5c:	b0 12 44 4e 	call	#0x4e44	
    7d60:	56 3c       	jmp	$+174    	;abs 0x7e0e
    7d62:	b2 40 03 00 2a 11 	mov	#3,	&0x112a	;#0x0003
    7d68:	b0 12 44 4e 	call	#0x4e44	
    7d6c:	82 4a 84 11 	mov	r10,	&0x1184	
    7d70:	82 4b 86 11 	mov	r11,	&0x1186	
    7d74:	f2 40 ad ff ce 11 	mov.b	#-83,	&0x11ce	;#0xffad
    7d7a:	b0 12 98 5b 	call	#0x5b98	
    7d7e:	47 3c       	jmp	$+144    	;abs 0x7e0e
    7d80:	4a 93       	tst.b	r10		
    7d82:	20 24       	jz	$+66     	;abs 0x7dc4
    7d84:	5d 42 6e 15 	mov.b	&0x156e,r13	
    7d88:	7d 53       	add.b	#-1,	r13	;r3 As==11
    7d8a:	6d 93       	cmp.b	#2,	r13	;r3 As==10
    7d8c:	03 2c       	jc	$+8      	;abs 0x7d94
    7d8e:	12 c3       	clrc			
    7d90:	0f 10       	rrc	r15		
    7d92:	0e 10       	rrc	r14		
    7d94:	1c 42 34 15 	mov	&0x1534,r12	
    7d98:	1d 42 36 15 	mov	&0x1536,r13	
    7d9c:	02 3c       	jmp	$+6      	;abs 0x7da2
    7d9e:	0e 5e       	rla	r14		
    7da0:	0f 6f       	rlc	r15		
    7da2:	0a 4e       	mov	r14,	r10	
    7da4:	0b 4f       	mov	r15,	r11	
    7da6:	0a f3       	and	#0,	r10	;r3 As==00
    7da8:	3b f0 00 fc 	and	#-1024,	r11	;#0xfc00
    7dac:	0a 93       	tst	r10		
    7dae:	0a 20       	jnz	$+22     	;abs 0x7dc4
    7db0:	0b 93       	tst	r11		
    7db2:	08 20       	jnz	$+18     	;abs 0x7dc4
    7db4:	0a 4e       	mov	r14,	r10	
    7db6:	0b 4f       	mov	r15,	r11	
    7db8:	0a fc       	and	r12,	r10	
    7dba:	0b fd       	and	r13,	r11	
    7dbc:	0a 93       	tst	r10		
    7dbe:	ef 23       	jnz	$-32     	;abs 0x7d9e
    7dc0:	0b 93       	tst	r11		
    7dc2:	ed 23       	jnz	$-36     	;abs 0x7d9e
    7dc4:	5f 42 6e 15 	mov.b	&0x156e,r15	
    7dc8:	7f 53       	add.b	#-1,	r15	;r3 As==11
    7dca:	6f 93       	cmp.b	#2,	r15	;r3 As==10
    7dcc:	09 2c       	jc	$+20     	;abs 0x7de0
    7dce:	92 42 76 13 ea 11 	mov	&0x1376,&0x11ea	
    7dd4:	3e 40 ea 11 	mov	#4586,	r14	;#0x11ea
    7dd8:	7f 40 50 00 	mov.b	#80,	r15	;#0x0050
    7ddc:	b0 12 f0 76 	call	#0x76f0	
    7de0:	1f 42 36 11 	mov	&0x1136,r15	
    7de4:	0f 93       	tst	r15		
    7de6:	07 24       	jz	$+16     	;abs 0x7df6
    7de8:	2f 4f       	mov	@r15,	r15	
    7dea:	b0 12 a2 4b 	call	#0x4ba2	
    7dee:	1f 42 36 11 	mov	&0x1136,r15	
    7df2:	b0 12 d2 4b 	call	#0x4bd2	
    7df6:	82 43 36 11 	mov	#0,	&0x1136	;r3 As==00
    7dfa:	4f 43       	clr.b	r15		
    7dfc:	b0 12 6c 59 	call	#0x596c	
    7e00:	4f 93       	tst.b	r15		
    7e02:	03 24       	jz	$+8      	;abs 0x7e0a
    7e04:	4f 43       	clr.b	r15		
    7e06:	b0 12 02 5a 	call	#0x5a02	
    7e0a:	c2 43 34 11 	mov.b	#0,	&0x1134	;r3 As==00
    7e0e:	37 41       	pop	r7		
    7e10:	38 41       	pop	r8		
    7e12:	39 41       	pop	r9		
    7e14:	3a 41       	pop	r10		
    7e16:	3b 41       	pop	r11		
    7e18:	30 41       	ret			

00007e1a <PibP__RadioControl__stopDone.isra.231>:
    7e1a:	0b 12       	push	r11		
    7e1c:	5f 43       	mov.b	#1,	r15	;r3 As==01
    7e1e:	b0 12 6c 59 	call	#0x596c	
    7e22:	4f 93       	tst.b	r15		
    7e24:	92 24       	jz	$+294    	;abs 0x7f4a
    7e26:	b0 12 10 7c 	call	#0x7c10	
    7e2a:	b0 12 10 7c 	call	#0x7c10	
    7e2e:	e2 d3 d5 14 	bis.b	#2,	&0x14d5	;r3 As==10
    7e32:	09 3c       	jmp	$+20     	;abs 0x7e46
    7e34:	b0 12 3c 4c 	call	#0x4c3c	
    7e38:	3d 40 f1 00 	mov	#241,	r13	;#0x00f1
    7e3c:	0e 4f       	mov	r15,	r14	
    7e3e:	5f 4f 08 00 	mov.b	8(r15),	r15	;0x0008(r15)
    7e42:	b0 12 4c 7a 	call	#0x7a4c	
    7e46:	c2 93 2c 11 	tst.b	&0x112c	
    7e4a:	f4 23       	jnz	$-22     	;abs 0x7e34
    7e4c:	f2 f0 fd ff d5 14 	and.b	#-3,	&0x14d5	;#0xfffd
    7e52:	c2 93 34 11 	tst.b	&0x1134	
    7e56:	04 24       	jz	$+10     	;abs 0x7e60
    7e58:	d2 43 3a 15 	mov.b	#1,	&0x153a	;r3 As==01
    7e5c:	b0 12 42 7c 	call	#0x7c42	
    7e60:	c2 43 6f 15 	mov.b	#0,	&0x156f	;r3 As==00
    7e64:	b2 40 7c 13 78 15 	mov	#4988,	&0x1578	;#0x137c
    7e6a:	c2 43 7e 15 	mov.b	#0,	&0x157e	;r3 As==00
    7e6e:	b2 40 06 14 7a 15 	mov	#5126,	&0x157a	;#0x1406
    7e74:	e2 42 7f 15 	mov.b	#4,	&0x157f	;r2 As==10
    7e78:	b2 40 ce 14 7c 15 	mov	#5326,	&0x157c	;#0x14ce
    7e7e:	c2 43 be 11 	mov.b	#0,	&0x11be	;r3 As==00
    7e82:	f2 f0 fd ff e6 13 	and.b	#-3,	&0x13e6	;#0xfffd
    7e88:	f2 43 90 15 	mov.b	#-1,	&0x1590	;r3 As==11
    7e8c:	c2 43 bf 11 	mov.b	#0,	&0x11bf	;r3 As==00
    7e90:	c2 43 c6 11 	mov.b	#0,	&0x11c6	;r3 As==00
    7e94:	f2 43 a4 14 	mov.b	#-1,	&0x14a4	;r3 As==11
    7e98:	f2 43 a8 14 	mov.b	#-1,	&0x14a8	;r3 As==11
    7e9c:	f2 43 ac 14 	mov.b	#-1,	&0x14ac	;r3 As==11
    7ea0:	f2 43 b0 14 	mov.b	#-1,	&0x14b0	;r3 As==11
    7ea4:	f2 43 b4 14 	mov.b	#-1,	&0x14b4	;r3 As==11
    7ea8:	f2 43 b8 14 	mov.b	#-1,	&0x14b8	;r3 As==11
    7eac:	f2 43 bc 14 	mov.b	#-1,	&0x14bc	;r3 As==11
    7eb0:	f2 43 b0 11 	mov.b	#-1,	&0x11b0	;r3 As==11
    7eb4:	c2 43 bd 11 	mov.b	#0,	&0x11bd	;r3 As==00
    7eb8:	c2 43 b4 12 	mov.b	#0,	&0x12b4	;r3 As==00
    7ebc:	82 43 3a 14 	mov	#0,	&0x143a	;r3 As==00
    7ec0:	f2 f0 fd ff f0 13 	and.b	#-3,	&0x13f0	;#0xfffd
    7ec6:	0b 43       	clr	r11		
    7ec8:	1e 4b 66 11 	mov	4454(r11),r14	;0x1166(r11)
    7ecc:	0e 93       	tst	r14		
    7ece:	06 24       	jz	$+14     	;abs 0x7edc
    7ed0:	3d 40 f1 00 	mov	#241,	r13	;#0x00f1
    7ed4:	5f 4e 08 00 	mov.b	8(r14),	r15	;0x0008(r14)
    7ed8:	b0 12 e4 79 	call	#0x79e4	
    7edc:	2b 53       	incd	r11		
    7ede:	3b 90 0e 00 	cmp	#14,	r11	;#0x000e
    7ee2:	f2 23       	jnz	$-26     	;abs 0x7ec8
    7ee4:	82 43 66 11 	mov	#0,	&0x1166	;r3 As==00
    7ee8:	82 43 68 11 	mov	#0,	&0x1168	;r3 As==00
    7eec:	82 43 6a 11 	mov	#0,	&0x116a	;r3 As==00
    7ef0:	82 43 6c 11 	mov	#0,	&0x116c	;r3 As==00
    7ef4:	82 43 6e 11 	mov	#0,	&0x116e	;r3 As==00
    7ef8:	82 43 70 11 	mov	#0,	&0x1170	;r3 As==00
    7efc:	82 43 72 11 	mov	#0,	&0x1172	;r3 As==00
    7f00:	82 43 88 15 	mov	#0,	&0x1588	;r3 As==00
    7f04:	c2 43 70 13 	mov.b	#0,	&0x1370	;r3 As==00
    7f08:	c2 43 cc 14 	mov.b	#0,	&0x14cc	;r3 As==00
    7f0c:	c2 43 3b 15 	mov.b	#0,	&0x153b	;r3 As==00
    7f10:	b2 40 48 11 c6 13 	mov	#4424,	&0x13c6	;#0x1148
    7f16:	b2 40 42 15 ca 13 	mov	#5442,	&0x13ca	;#0x1542
    7f1c:	b2 40 3b 15 c8 13 	mov	#5435,	&0x13c8	;#0x153b
    7f22:	c2 43 cd 13 	mov.b	#0,	&0x13cd	;r3 As==00
    7f26:	c2 43 ce 13 	mov.b	#0,	&0x13ce	;r3 As==00
    7f2a:	92 43 a0 12 	mov	#1,	&0x12a0	;r3 As==01
    7f2e:	c2 93 45 11 	tst.b	&0x1145	
    7f32:	02 24       	jz	$+6      	;abs 0x7f38
    7f34:	c2 43 45 11 	mov.b	#0,	&0x1145	;r3 As==00
    7f38:	c2 43 bb 11 	mov.b	#0,	&0x11bb	;r3 As==00
    7f3c:	f2 f0 fd ff 04 14 	and.b	#-3,	&0x1404	;#0xfffd
    7f42:	7f 40 03 00 	mov.b	#3,	r15	;#0x0003
    7f46:	b0 12 4c 4e 	call	#0x4e4c	
    7f4a:	3b 41       	pop	r11		
    7f4c:	30 41       	ret			

00007f4e <ScanP__continueScanRequest>:
    7f4e:	5e 42 e1 11 	mov.b	&0x11e1,r14	
    7f52:	c2 93 34 11 	tst.b	&0x1134	
    7f56:	04 20       	jnz	$+10     	;abs 0x7f60
    7f58:	4f 43       	clr.b	r15		
    7f5a:	b0 12 02 5a 	call	#0x5a02	
    7f5e:	30 41       	ret			
    7f60:	5f 42 6e 15 	mov.b	&0x156e,r15	
    7f64:	6f 93       	cmp.b	#2,	r15	;r3 As==10
    7f66:	30 24       	jz	$+98     	;abs 0x7fc8
    7f68:	7f 90 03 00 	cmp.b	#3,	r15	;#0x0003
    7f6c:	36 24       	jz	$+110    	;abs 0x7fda
    7f6e:	5f 93       	cmp.b	#1,	r15	;r3 As==01
    7f70:	7b 20       	jnz	$+248    	;abs 0x8068
    7f72:	1f 42 36 11 	mov	&0x1136,r15	
    7f76:	2d 4f       	mov	@r15,	r13	
    7f78:	fd 40 03 00 01 00 	mov.b	#3,	1(r13)	;#0x0003, 0x0001(r13)
    7f7e:	2d 4f       	mov	@r15,	r13	
    7f80:	fd 42 02 00 	mov.b	#8,	2(r13)	;r2 As==11, 0x0002(r13)
    7f84:	2f 4f       	mov	@r15,	r15	
    7f86:	cf 4e 03 00 	mov.b	r14,	3(r15)	;0x0003(r15)
    7f8a:	5e 53       	inc.b	r14		
    7f8c:	c2 4e e1 11 	mov.b	r14,	&0x11e1	
    7f90:	3e 40 e1 11 	mov	#4577,	r14	;#0x11e1
    7f94:	7f 40 4c 00 	mov.b	#76,	r15	;#0x004c
    7f98:	b0 12 f0 76 	call	#0x76f0	
    7f9c:	1f 42 36 11 	mov	&0x1136,r15	
    7fa0:	2e 4f       	mov	@r15,	r14	
    7fa2:	fe 43 04 00 	mov.b	#-1,	4(r14)	;r3 As==11, 0x0004(r14)
    7fa6:	2e 4f       	mov	@r15,	r14	
    7fa8:	fe 43 05 00 	mov.b	#-1,	5(r14)	;r3 As==11, 0x0005(r14)
    7fac:	2e 4f       	mov	@r15,	r14	
    7fae:	fe 43 06 00 	mov.b	#-1,	6(r14)	;r3 As==11, 0x0006(r14)
    7fb2:	2e 4f       	mov	@r15,	r14	
    7fb4:	fe 43 07 00 	mov.b	#-1,	7(r14)	;r3 As==11, 0x0007(r14)
    7fb8:	ff 40 07 00 06 00 	mov.b	#7,	6(r15)	;#0x0007, 0x0006(r15)
    7fbe:	f2 40 07 00 72 15 	mov.b	#7,	&0x1572	;#0x0007
    7fc4:	df 43 07 00 	mov.b	#1,	7(r15)	;r3 As==01, 0x0007(r15)
    7fc8:	b2 43 ea 11 	mov	#-1,	&0x11ea	;r3 As==11
    7fcc:	3e 40 ea 11 	mov	#4586,	r14	;#0x11ea
    7fd0:	7f 40 50 00 	mov.b	#80,	r15	;#0x0050
    7fd4:	b0 12 f0 76 	call	#0x76f0	
    7fd8:	47 3c       	jmp	$+144    	;abs 0x8068
    7fda:	5f 42 e7 11 	mov.b	&0x11e7,r15	
    7fde:	02 12       	push	r2		
    7fe0:	32 c2       	dint			
    7fe2:	03 43       	nop			
    7fe4:	82 4f 32 01 	mov	r15,	&0x0132	
    7fe8:	b2 40 c0 03 38 01 	mov	#960,	&0x0138	;#0x03c0
    7fee:	1f 42 3a 01 	mov	&0x013a,r15	
    7ff2:	32 41       	pop	r2		
    7ff4:	82 4f b8 12 	mov	r15,	&0x12b8	
    7ff8:	8f 10       	swpb	r15		
    7ffa:	8f 11       	sxt	r15		
    7ffc:	8f 10       	swpb	r15		
    7ffe:	8f 11       	sxt	r15		
    8000:	82 4f ba 12 	mov	r15,	&0x12ba	
    8004:	1f 42 36 11 	mov	&0x1136,r15	
    8008:	2d 4f       	mov	@r15,	r13	
    800a:	fd 40 43 00 01 00 	mov.b	#67,	1(r13)	;#0x0043, 0x0001(r13)
    8010:	2d 4f       	mov	@r15,	r13	
    8012:	fd 40 c8 ff 02 00 	mov.b	#-56,	2(r13)	;#0xffc8, 0x0002(r13)
    8018:	2f 4f       	mov	@r15,	r15	
    801a:	cf 4e 03 00 	mov.b	r14,	3(r15)	;0x0003(r15)
    801e:	5e 53       	inc.b	r14		
    8020:	c2 4e e1 11 	mov.b	r14,	&0x11e1	
    8024:	3e 40 e1 11 	mov	#4577,	r14	;#0x11e1
    8028:	7f 40 4c 00 	mov.b	#76,	r15	;#0x004c
    802c:	b0 12 f0 76 	call	#0x76f0	
    8030:	1f 42 36 11 	mov	&0x1136,r15	
    8034:	2e 4f       	mov	@r15,	r14	
    8036:	fe 43 04 00 	mov.b	#-1,	4(r14)	;r3 As==11, 0x0004(r14)
    803a:	2e 4f       	mov	@r15,	r14	
    803c:	fe 43 05 00 	mov.b	#-1,	5(r14)	;r3 As==11, 0x0005(r14)
    8040:	2e 4f       	mov	@r15,	r14	
    8042:	fe 43 06 00 	mov.b	#-1,	6(r14)	;r3 As==11, 0x0006(r14)
    8046:	2e 4f       	mov	@r15,	r14	
    8048:	fe 43 07 00 	mov.b	#-1,	7(r14)	;r3 As==11, 0x0007(r14)
    804c:	2f 4f       	mov	@r15,	r15	
    804e:	3f 52       	add	#8,	r15	;r2 As==11
    8050:	b0 12 48 45 	call	#0x4548	
    8054:	1f 42 36 11 	mov	&0x1136,r15	
    8058:	ff 40 0f 00 06 00 	mov.b	#15,	6(r15)	;#0x000f, 0x0006(r15)
    805e:	f2 40 06 00 72 15 	mov.b	#6,	&0x1572	;#0x0006
    8064:	df 43 07 00 	mov.b	#1,	7(r15)	;r3 As==01, 0x0007(r15)
    8068:	b0 12 42 7c 	call	#0x7c42	
    806c:	30 41       	ret			

0000806e <VirtualizeTimerC__1__fireTimers>:
    806e:	0b 12       	push	r11		
    8070:	0a 12       	push	r10		
    8072:	09 12       	push	r9		
    8074:	08 12       	push	r8		
    8076:	07 12       	push	r7		
    8078:	06 12       	push	r6		
    807a:	05 12       	push	r5		
    807c:	04 12       	push	r4		
    807e:	31 50 e4 ff 	add	#-28,	r1	;#0xffe4
    8082:	04 4e       	mov	r14,	r4	
    8084:	05 4f       	mov	r15,	r5	
    8086:	0a 43       	clr	r10		
    8088:	0e 4a       	mov	r10,	r14	
    808a:	0e 5e       	rla	r14		
    808c:	0f 4e       	mov	r14,	r15	
    808e:	0f 5f       	rla	r15		
    8090:	0f 5f       	rla	r15		
    8092:	0f 5e       	add	r14,	r15	
    8094:	3f 50 d4 13 	add	#5076,	r15	;#0x13d4
    8098:	5e 4f 08 00 	mov.b	8(r15),	r14	;0x0008(r15)
    809c:	6e b3       	bit.b	#2,	r14	;r3 As==10
    809e:	02 20       	jnz	$+6      	;abs 0x80a4
    80a0:	30 40 ee 83 	br	#0x83ee	
    80a4:	28 4f       	mov	@r15,	r8	
    80a6:	19 4f 02 00 	mov	2(r15),	r9	;0x0002(r15)
    80aa:	1c 4f 04 00 	mov	4(r15),	r12	;0x0004(r15)
    80ae:	1d 4f 06 00 	mov	6(r15),	r13	;0x0006(r15)
    80b2:	06 44       	mov	r4,	r6	
    80b4:	07 45       	mov	r5,	r7	
    80b6:	06 88       	sub	r8,	r6	
    80b8:	07 79       	subc	r9,	r7	
    80ba:	07 9d       	cmp	r13,	r7	
    80bc:	02 2c       	jc	$+6      	;abs 0x80c2
    80be:	30 40 ee 83 	br	#0x83ee	
    80c2:	04 20       	jnz	$+10     	;abs 0x80cc
    80c4:	06 9c       	cmp	r12,	r6	
    80c6:	02 2c       	jc	$+6      	;abs 0x80cc
    80c8:	30 40 ee 83 	br	#0x83ee	
    80cc:	5e f3       	and.b	#1,	r14	;r3 As==01
    80ce:	04 24       	jz	$+10     	;abs 0x80d8
    80d0:	ff f0 fd ff 08 00 	and.b	#-3,	8(r15)	;#0xfffd, 0x0008(r15)
    80d6:	08 3c       	jmp	$+18     	;abs 0x80e8
    80d8:	06 4c       	mov	r12,	r6	
    80da:	07 4d       	mov	r13,	r7	
    80dc:	06 58       	add	r8,	r6	
    80de:	07 69       	addc	r9,	r7	
    80e0:	8f 46 00 00 	mov	r6,	0(r15)	;0x0000(r15)
    80e4:	8f 47 02 00 	mov	r7,	2(r15)	;0x0002(r15)
    80e8:	6a 93       	cmp.b	#2,	r10	;r3 As==10
    80ea:	c2 24       	jz	$+390    	;abs 0x8270
    80ec:	7a 90 03 00 	cmp.b	#3,	r10	;#0x0003
    80f0:	03 2c       	jc	$+8      	;abs 0x80f8
    80f2:	5a 93       	cmp.b	#1,	r10	;r3 As==01
    80f4:	0a 20       	jnz	$+22     	;abs 0x810a
    80f6:	15 3c       	jmp	$+44     	;abs 0x8122
    80f8:	7a 90 03 00 	cmp.b	#3,	r10	;#0x0003
    80fc:	02 20       	jnz	$+6      	;abs 0x8102
    80fe:	30 40 96 83 	br	#0x8396	
    8102:	6a 92       	cmp.b	#4,	r10	;r2 As==10
    8104:	02 20       	jnz	$+6      	;abs 0x810a
    8106:	30 40 9c 83 	br	#0x839c	
    810a:	4f 43       	clr.b	r15		
    810c:	b0 12 6c 59 	call	#0x596c	
    8110:	4f 93       	tst.b	r15		
    8112:	02 20       	jnz	$+6      	;abs 0x8118
    8114:	30 40 fa 83 	br	#0x83fa	
    8118:	4f 43       	clr.b	r15		
    811a:	b0 12 b0 5a 	call	#0x5ab0	
    811e:	30 40 fa 83 	br	#0x83fa	
    8122:	c2 93 c6 11 	tst.b	&0x11c6	
    8126:	02 20       	jnz	$+6      	;abs 0x812c
    8128:	30 40 fa 83 	br	#0x83fa	
    812c:	57 42 bf 11 	mov.b	&0x11bf,r7	
    8130:	67 93       	cmp.b	#2,	r7	;r3 As==10
    8132:	08 20       	jnz	$+18     	;abs 0x8144
    8134:	1f 42 e8 11 	mov	&0x11e8,r15	
    8138:	c1 4f 00 00 	mov.b	r15,	0(r1)	;0x0000(r1)
    813c:	8f 10       	swpb	r15		
    813e:	c1 4f 01 00 	mov.b	r15,	1(r1)	;0x0001(r1)
    8142:	1c 3c       	jmp	$+58     	;abs 0x817c
    8144:	1c 42 f8 11 	mov	&0x11f8,r12	
    8148:	1d 42 fa 11 	mov	&0x11fa,r13	
    814c:	1f 42 fc 11 	mov	&0x11fc,r15	
    8150:	1a 42 fe 11 	mov	&0x11fe,r10	
    8154:	0e 43       	clr	r14		
    8156:	4b 4a       	mov.b	r10,	r11	
    8158:	08 41       	mov	r1,	r8	
    815a:	08 5e       	add	r14,	r8	
    815c:	c8 4c 00 00 	mov.b	r12,	0(r8)	;0x0000(r8)
    8160:	8c 10       	swpb	r12		
    8162:	8d 10       	swpb	r13		
    8164:	4c ed       	xor.b	r13,	r12	
    8166:	0c ed       	xor	r13,	r12	
    8168:	8f 10       	swpb	r15		
    816a:	4d ef       	xor.b	r15,	r13	
    816c:	0d ef       	xor	r15,	r13	
    816e:	8a 10       	swpb	r10		
    8170:	4f ea       	xor.b	r10,	r15	
    8172:	0f ea       	xor	r10,	r15	
    8174:	0a 4b       	mov	r11,	r10	
    8176:	1e 53       	inc	r14		
    8178:	3e 92       	cmp	#8,	r14	;r2 As==11
    817a:	ee 23       	jnz	$-34     	;abs 0x8158
    817c:	14 42 ea 11 	mov	&0x11ea,r4	
    8180:	b0 12 d6 47 	call	#0x47d6	
    8184:	0a 4f       	mov	r15,	r10	
    8186:	0f 93       	tst	r15		
    8188:	6a 24       	jz	$+214    	;abs 0x825e
    818a:	b0 12 0e 48 	call	#0x480e	
    818e:	06 4f       	mov	r15,	r6	
    8190:	0f 93       	tst	r15		
    8192:	62 24       	jz	$+198    	;abs 0x8258
    8194:	8a 4f 00 00 	mov	r15,	0(r10)	;0x0000(r10)
    8198:	3f 50 1a 00 	add	#26,	r15	;#0x001a
    819c:	8a 4f 04 00 	mov	r15,	4(r10)	;0x0004(r10)
    81a0:	ca 43 09 00 	mov.b	#0,	9(r10)	;r3 As==00, 0x0009(r10)
    81a4:	1b 42 ea 11 	mov	&0x11ea,r11	
    81a8:	67 93       	cmp.b	#2,	r7	;r3 As==10
    81aa:	02 20       	jnz	$+6      	;abs 0x81b0
    81ac:	2f 43       	mov	#2,	r15	;r3 As==10
    81ae:	01 3c       	jmp	$+4      	;abs 0x81b2
    81b0:	3f 42       	mov	#8,	r15	;r2 As==11
    81b2:	0d 4f       	mov	r15,	r13	
    81b4:	0e 41       	mov	r1,	r14	
    81b6:	0f 41       	mov	r1,	r15	
    81b8:	3f 52       	add	#8,	r15	;r2 As==11
    81ba:	b0 12 6a 98 	call	#0x986a	
    81be:	28 4a       	mov	@r10,	r8	
    81c0:	f8 40 23 00 01 00 	mov.b	#35,	1(r8)	;#0x0023, 0x0001(r8)
    81c6:	67 93       	cmp.b	#2,	r7	;r3 As==10
    81c8:	05 28       	jnc	$+12     	;abs 0x81d4
    81ca:	04 9b       	cmp	r11,	r4	
    81cc:	03 20       	jnz	$+8      	;abs 0x81d4
    81ce:	f8 40 63 00 01 00 	mov.b	#99,	1(r8)	;#0x0063, 0x0001(r8)
    81d4:	4c 47       	mov.b	r7,	r12	
    81d6:	4c 5c       	rla.b	r12		
    81d8:	4c 5c       	rla.b	r12		
    81da:	7c d0 c0 ff 	bis.b	#-64,	r12	;#0xffc0
    81de:	c8 4c 02 00 	mov.b	r12,	2(r8)	;0x0002(r8)
    81e2:	91 42 9e 13 10 00 	mov	&0x139e,16(r1)	;0x0010(r1)
    81e8:	91 42 a0 13 12 00 	mov	&0x13a0,18(r1)	;0x0012(r1)
    81ee:	91 42 a2 13 14 00 	mov	&0x13a2,20(r1)	;0x0014(r1)
    81f4:	91 42 a4 13 16 00 	mov	&0x13a4,22(r1)	;0x0016(r1)
    81fa:	2f 4a       	mov	@r10,	r15	
    81fc:	1f 53       	inc	r15		
    81fe:	5d 48 01 00 	mov.b	1(r8),	r13	;0x0001(r8)
    8202:	3d f0 40 00 	and	#64,	r13	;#0x0040
    8206:	5e 43       	mov.b	#1,	r14	;r3 As==01
    8208:	01 20       	jnz	$+4      	;abs 0x820c
    820a:	4e 43       	clr.b	r14		
    820c:	4e 12       	push.b	r14		
    820e:	0e 41       	mov	r1,	r14	
    8210:	3e 50 12 00 	add	#18,	r14	;#0x0012
    8214:	0e 12       	push	r14		
    8216:	0b 12       	push	r11		
    8218:	70 12 03 00 	push.b	#3		;#0x0003
    821c:	0c 41       	mov	r1,	r12	
    821e:	3c 50 10 00 	add	#16,	r12	;#0x0010
    8222:	0d 44       	mov	r4,	r13	
    8224:	4e 47       	mov.b	r7,	r14	
    8226:	b0 12 48 48 	call	#0x4848	
    822a:	31 52       	add	#8,	r1	;r2 As==11
    822c:	ca 4f 06 00 	mov.b	r15,	6(r10)	;0x0006(r10)
    8230:	ba 40 08 11 02 00 	mov	#4360,	2(r10)	;#0x1108, 0x0002(r10)
    8236:	da 43 07 00 	mov.b	#1,	7(r10)	;r3 As==01, 0x0007(r10)
    823a:	0e 4a       	mov	r10,	r14	
    823c:	7f 40 06 00 	mov.b	#6,	r15	;#0x0006
    8240:	b0 12 2c 50 	call	#0x502c	
    8244:	0f 93       	tst	r15		
    8246:	04 24       	jz	$+10     	;abs 0x8250
    8248:	0f 46       	mov	r6,	r15	
    824a:	b0 12 a2 4b 	call	#0x4ba2	
    824e:	04 3c       	jmp	$+10     	;abs 0x8258
    8250:	92 53 3a 14 	inc	&0x143a	
    8254:	30 40 fa 83 	br	#0x83fa	
    8258:	0f 4a       	mov	r10,	r15	
    825a:	b0 12 d2 4b 	call	#0x4bd2	
    825e:	4f 43       	clr.b	r15		
    8260:	b0 12 30 79 	call	#0x7930	
    8264:	c2 93 c6 11 	tst.b	&0x11c6	
    8268:	c8 24       	jz	$+402    	;abs 0x83fa
    826a:	b0 12 10 79 	call	#0x7910	
    826e:	c5 3c       	jmp	$+396    	;abs 0x83fa
    8270:	6f 43       	mov.b	#2,	r15	;r3 As==10
    8272:	b0 12 f4 53 	call	#0x53f4	
    8276:	04 4e       	mov	r14,	r4	
    8278:	05 4f       	mov	r15,	r5	
    827a:	5e 42 df 11 	mov.b	&0x11df,r14	
    827e:	7e 90 0f 00 	cmp.b	#15,	r14	;#0x000f
    8282:	16 2c       	jc	$+46     	;abs 0x82b0
    8284:	1f 43       	mov	#1,	r15	;r3 As==01
    8286:	7e f0 0f 00 	and.b	#15,	r14	;#0x000f
    828a:	4e 93       	tst.b	r14		
    828c:	03 24       	jz	$+8      	;abs 0x8294
    828e:	0f 5f       	rla	r15		
    8290:	7e 53       	add.b	#-1,	r14	;r3 As==11
    8292:	fb 3f       	jmp	$-8      	;abs 0x828a
    8294:	02 12       	push	r2		
    8296:	32 c2       	dint			
    8298:	03 43       	nop			
    829a:	82 4f 30 01 	mov	r15,	&0x0130	
    829e:	b2 40 c0 03 38 01 	mov	#960,	&0x0138	;#0x03c0
    82a4:	1a 42 3a 01 	mov	&0x013a,r10	
    82a8:	1b 42 3c 01 	mov	&0x013c,r11	
    82ac:	32 41       	pop	r2		
    82ae:	03 3c       	jmp	$+8      	;abs 0x82b6
    82b0:	3a 40 c0 03 	mov	#960,	r10	;#0x03c0
    82b4:	0b 43       	clr	r11		
    82b6:	1c 42 ee 11 	mov	&0x11ee,r12	
    82ba:	0d 43       	clr	r13		
    82bc:	0e 4a       	mov	r10,	r14	
    82be:	0f 4b       	mov	r11,	r15	
    82c0:	b0 12 92 97 	call	#0x9792	
    82c4:	0a 4e       	mov	r14,	r10	
    82c6:	0b 4f       	mov	r15,	r11	
    82c8:	37 40 66 11 	mov	#4454,	r7	;#0x1166
    82cc:	08 43       	clr	r8		
    82ce:	09 43       	clr	r9		
    82d0:	2f 47       	mov	@r7,	r15	
    82d2:	0f 93       	tst	r15		
    82d4:	48 24       	jz	$+146    	;abs 0x8366
    82d6:	1f 92 88 15 	cmp	&0x1588,r15	
    82da:	45 24       	jz	$+140    	;abs 0x8366
    82dc:	1f 4f 04 00 	mov	4(r15),	r15	;0x0004(r15)
    82e0:	b0 12 c8 45 	call	#0x45c8	
    82e4:	81 4e 18 00 	mov	r14,	24(r1)	;0x0018(r1)
    82e8:	81 4f 1a 00 	mov	r15,	26(r1)	;0x001a(r1)
    82ec:	5f 43       	mov.b	#1,	r15	;r3 As==01
    82ee:	b0 12 f4 53 	call	#0x53f4	
    82f2:	0c 4e       	mov	r14,	r12	
    82f4:	0d 4f       	mov	r15,	r13	
    82f6:	1c 81 18 00 	sub	24(r1),	r12	;0x0018(r1)
    82fa:	1d 71 1a 00 	subc	26(r1),	r13	;0x001a(r1)
    82fe:	0d 9b       	cmp	r11,	r13	
    8300:	22 28       	jnc	$+70     	;abs 0x8346
    8302:	02 20       	jnz	$+6      	;abs 0x8308
    8304:	0c 9a       	cmp	r10,	r12	
    8306:	1f 28       	jnc	$+64     	;abs 0x8346
    8308:	2f 47       	mov	@r7,	r15	
    830a:	ff f0 7f 00 08 00 	and.b	#127,	8(r15)	;#0x007f, 0x0008(r15)
    8310:	87 43 00 00 	mov	#0,	0(r7)	;r3 As==00, 0x0000(r7)
    8314:	f2 53 70 13 	add.b	#-1,	&0x1370	;r3 As==11
    8318:	2e 4f       	mov	@r15,	r14	
    831a:	5e 4e 02 00 	mov.b	2(r14),	r14	;0x0002(r14)
    831e:	3e f0 0c 00 	and	#12,	r14	;#0x000c
    8322:	3e 92       	cmp	#8,	r14	;r2 As==11
    8324:	03 20       	jnz	$+8      	;abs 0x832c
    8326:	f2 53 cc 14 	add.b	#-1,	&0x14cc	;r3 As==11
    832a:	05 3c       	jmp	$+12     	;abs 0x8336
    832c:	3e 90 0c 00 	cmp	#12,	r14	;#0x000c
    8330:	02 20       	jnz	$+6      	;abs 0x8336
    8332:	f2 53 3b 15 	add.b	#-1,	&0x153b	;r3 As==11
    8336:	3d 40 f0 00 	mov	#240,	r13	;#0x00f0
    833a:	0e 4f       	mov	r15,	r14	
    833c:	5f 4f 08 00 	mov.b	8(r15),	r15	;0x0008(r15)
    8340:	b0 12 e4 79 	call	#0x79e4	
    8344:	10 3c       	jmp	$+34     	;abs 0x8366
    8346:	2f 47       	mov	@r7,	r15	
    8348:	1f 4f 04 00 	mov	4(r15),	r15	;0x0004(r15)
    834c:	b0 12 c8 45 	call	#0x45c8	
    8350:	0c 44       	mov	r4,	r12	
    8352:	0d 45       	mov	r5,	r13	
    8354:	0c 8e       	sub	r14,	r12	
    8356:	0d 7f       	subc	r15,	r13	
    8358:	09 9d       	cmp	r13,	r9	
    835a:	03 28       	jnc	$+8      	;abs 0x8362
    835c:	04 20       	jnz	$+10     	;abs 0x8366
    835e:	08 9c       	cmp	r12,	r8	
    8360:	02 2c       	jc	$+6      	;abs 0x8366
    8362:	08 4c       	mov	r12,	r8	
    8364:	09 4d       	mov	r13,	r9	
    8366:	27 53       	incd	r7		
    8368:	37 90 74 11 	cmp	#4468,	r7	;#0x1174
    836c:	b1 23       	jnz	$-156    	;abs 0x82d0
    836e:	08 93       	tst	r8		
    8370:	02 20       	jnz	$+6      	;abs 0x8376
    8372:	09 93       	tst	r9		
    8374:	42 24       	jz	$+134    	;abs 0x83fa
    8376:	0b 99       	cmp	r9,	r11	
    8378:	04 28       	jnc	$+10     	;abs 0x8382
    837a:	09 9b       	cmp	r11,	r9	
    837c:	04 28       	jnc	$+10     	;abs 0x8386
    837e:	0a 98       	cmp	r8,	r10	
    8380:	02 2c       	jc	$+6      	;abs 0x8386
    8382:	08 4a       	mov	r10,	r8	
    8384:	09 4b       	mov	r11,	r9	
    8386:	0d 4a       	mov	r10,	r13	
    8388:	0e 4b       	mov	r11,	r14	
    838a:	0d 88       	sub	r8,	r13	
    838c:	0e 79       	subc	r9,	r14	
    838e:	6f 43       	mov.b	#2,	r15	;r3 As==10
    8390:	b0 12 0e 54 	call	#0x540e	
    8394:	32 3c       	jmp	$+102    	;abs 0x83fa
    8396:	b0 12 12 66 	call	#0x6612	
    839a:	2f 3c       	jmp	$+96     	;abs 0x83fa
    839c:	c2 93 bb 11 	tst.b	&0x11bb	
    83a0:	1c 20       	jnz	$+58     	;abs 0x83da
    83a2:	d2 43 bb 11 	mov.b	#1,	&0x11bb	;r3 As==01
    83a6:	1e 42 2e 15 	mov	&0x152e,r14	
    83aa:	1f 42 30 15 	mov	&0x1530,r15	
    83ae:	1e 52 9a 12 	add	&0x129a,r14	
    83b2:	1f 62 9c 12 	addc	&0x129c,r15	
    83b6:	92 42 b0 12 fc 13 	mov	&0x12b0,&0x13fc	
    83bc:	92 42 b2 12 fe 13 	mov	&0x12b2,&0x13fe	
    83c2:	82 4e 00 14 	mov	r14,	&0x1400	
    83c6:	82 4f 02 14 	mov	r15,	&0x1402	
    83ca:	f2 d0 03 00 04 14 	bis.b	#3,	&0x1404	;#0x0003
    83d0:	7f 40 1b 00 	mov.b	#27,	r15	;#0x001b
    83d4:	b0 12 4c 4e 	call	#0x4e4c	
    83d8:	07 3c       	jmp	$+16     	;abs 0x83e8
    83da:	c2 43 bb 11 	mov.b	#0,	&0x11bb	;r3 As==00
    83de:	c2 93 45 11 	tst.b	&0x1145	
    83e2:	02 24       	jz	$+6      	;abs 0x83e8
    83e4:	c2 43 45 11 	mov.b	#0,	&0x1145	;r3 As==00
    83e8:	b0 12 d4 76 	call	#0x76d4	
    83ec:	06 3c       	jmp	$+14     	;abs 0x83fa
    83ee:	1a 53       	inc	r10		
    83f0:	3a 90 05 00 	cmp	#5,	r10	;#0x0005
    83f4:	02 24       	jz	$+6      	;abs 0x83fa
    83f6:	30 40 88 80 	br	#0x8088	
    83fa:	7f 40 1b 00 	mov.b	#27,	r15	;#0x001b
    83fe:	b0 12 4c 4e 	call	#0x4e4c	
    8402:	31 50 1c 00 	add	#28,	r1	;#0x001c
    8406:	34 41       	pop	r4		
    8408:	35 41       	pop	r5		
    840a:	36 41       	pop	r6		
    840c:	37 41       	pop	r7		
    840e:	38 41       	pop	r8		
    8410:	39 41       	pop	r9		
    8412:	3a 41       	pop	r10		
    8414:	3b 41       	pop	r11		
    8416:	30 41       	ret			

00008418 <CC2420TKN154P__offSpiReserved>:
    8418:	b0 12 8a 51 	call	#0x518a	
    841c:	b0 12 ee 50 	call	#0x50ee	
    8420:	b0 12 28 51 	call	#0x5128	
    8424:	c2 43 82 11 	mov.b	#0,	&0x1182	;r3 As==00
    8428:	b0 12 3e 52 	call	#0x523e	
    842c:	a2 42 2a 11 	mov	#4,	&0x112a	;r2 As==10
    8430:	b0 12 5e 52 	call	#0x525e	
    8434:	5f 93       	cmp.b	#1,	r15	;r3 As==01
    8436:	0a 24       	jz	$+22     	;abs 0x844c
    8438:	06 28       	jnc	$+14     	;abs 0x8446
    843a:	6f 93       	cmp.b	#2,	r15	;r3 As==10
    843c:	0b 24       	jz	$+24     	;abs 0x8454
    843e:	7f 90 0c 00 	cmp.b	#12,	r15	;#0x000c
    8442:	0f 20       	jnz	$+32     	;abs 0x8462
    8444:	0a 3c       	jmp	$+22     	;abs 0x845a
    8446:	b0 12 78 50 	call	#0x5078	
    844a:	30 41       	ret			
    844c:	6f 43       	mov.b	#2,	r15	;r3 As==10
    844e:	b0 12 4c 4e 	call	#0x4e4c	
    8452:	30 41       	ret			
    8454:	b0 12 4c 6b 	call	#0x6b4c	
    8458:	30 41       	ret			
    845a:	c2 43 a3 14 	mov.b	#0,	&0x14a3	;r3 As==00
    845e:	b0 12 a4 6b 	call	#0x6ba4	
    8462:	30 41       	ret			

00008464 <SchedulerBasicP__TaskBasic__runTask>:
    8464:	0b 12       	push	r11		
    8466:	0a 12       	push	r10		
    8468:	09 12       	push	r9		
    846a:	08 12       	push	r8		
    846c:	07 12       	push	r7		
    846e:	06 12       	push	r6		
    8470:	05 12       	push	r5		
    8472:	04 12       	push	r4		
    8474:	31 50 d2 ff 	add	#-46,	r1	;#0xffd2
    8478:	7f 90 22 00 	cmp.b	#34,	r15	;#0x0022
    847c:	02 28       	jnc	$+6      	;abs 0x8482
    847e:	30 40 a4 94 	br	#0x94a4	
    8482:	4f 4f       	mov.b	r15,	r15	
    8484:	0f 5f       	rla	r15		
    8486:	10 4f f0 99 	br	-26128(r15)	;0x99f0(r15)
    848a:	c2 93 b2 11 	tst.b	&0x11b2	
    848e:	28 20       	jnz	$+82     	;abs 0x84e0
    8490:	1a 42 48 15 	mov	&0x1548,r10	
    8494:	1b 42 4a 15 	mov	&0x154a,r11	
    8498:	b0 12 32 4e 	call	#0x4e32	
    849c:	18 42 ac 12 	mov	&0x12ac,r8	
    84a0:	19 42 ae 12 	mov	&0x12ae,r9	
    84a4:	18 52 bc 12 	add	&0x12bc,r8	
    84a8:	19 62 be 12 	addc	&0x12be,r9	
    84ac:	b0 12 44 4e 	call	#0x4e44	
    84b0:	82 4a 48 15 	mov	r10,	&0x1548	
    84b4:	82 4b 4a 15 	mov	r11,	&0x154a	
    84b8:	c2 43 b2 11 	mov.b	#0,	&0x11b2	;r3 As==00
    84bc:	b0 12 32 4e 	call	#0x4e32	
    84c0:	82 48 bc 12 	mov	r8,	&0x12bc	
    84c4:	82 49 be 12 	mov	r9,	&0x12be	
    84c8:	82 4a ac 12 	mov	r10,	&0x12ac	
    84cc:	82 4b ae 12 	mov	r11,	&0x12ae	
    84d0:	81 4f 2c 00 	mov	r15,	44(r1)	;0x002c(r1)
    84d4:	b0 12 36 5e 	call	#0x5e36	
    84d8:	1f 41 2c 00 	mov	44(r1),	r15	;0x002c(r1)
    84dc:	b0 12 44 4e 	call	#0x4e44	
    84e0:	b0 12 ba 5d 	call	#0x5dba	
    84e4:	3a 3c       	jmp	$+118    	;abs 0x855a
    84e6:	b0 12 ba 5d 	call	#0x5dba	
    84ea:	08 4e       	mov	r14,	r8	
    84ec:	09 4f       	mov	r15,	r9	
    84ee:	b2 f0 ef ff 82 01 	and	#-17,	&0x0182	;#0xffef
    84f4:	46 43       	clr.b	r6		
    84f6:	3a 43       	mov	#-1,	r10	;r3 As==11
    84f8:	3b 40 ff 7f 	mov	#32767,	r11	;#0x7fff
    84fc:	07 43       	clr	r7		
    84fe:	0e 47       	mov	r7,	r14	
    8500:	0e 5e       	rla	r14		
    8502:	0f 4e       	mov	r14,	r15	
    8504:	0f 5f       	rla	r15		
    8506:	0f 5f       	rla	r15		
    8508:	0f 5e       	add	r14,	r15	
    850a:	3f 50 a8 13 	add	#5032,	r15	;#0x13a8
    850e:	ef b3 08 00 	bit.b	#2,	8(r15)	;r3 As==10, 0x0008(r15)
    8512:	13 24       	jz	$+40     	;abs 0x853a
    8514:	0c 48       	mov	r8,	r12	
    8516:	0d 49       	mov	r9,	r13	
    8518:	2c 8f       	sub	@r15,	r12	
    851a:	1d 7f 02 00 	subc	2(r15),	r13	;0x0002(r15)
    851e:	1e 4f 04 00 	mov	4(r15),	r14	;0x0004(r15)
    8522:	1f 4f 06 00 	mov	6(r15),	r15	;0x0006(r15)
    8526:	0e 8c       	sub	r12,	r14	
    8528:	0f 7d       	subc	r13,	r15	
    852a:	0f 9b       	cmp	r11,	r15	
    852c:	03 38       	jl	$+8      	;abs 0x8534
    852e:	05 20       	jnz	$+12     	;abs 0x853a
    8530:	0e 9a       	cmp	r10,	r14	
    8532:	03 2c       	jc	$+8      	;abs 0x853a
    8534:	0a 4e       	mov	r14,	r10	
    8536:	0b 4f       	mov	r15,	r11	
    8538:	56 43       	mov.b	#1,	r6	;r3 As==01
    853a:	17 53       	inc	r7		
    853c:	37 90 03 00 	cmp	#3,	r7	;#0x0003
    8540:	de 23       	jnz	$-66     	;abs 0x84fe
    8542:	46 93       	tst.b	r6		
    8544:	02 20       	jnz	$+6      	;abs 0x854a
    8546:	30 40 a4 94 	br	#0x94a4	
    854a:	0b 93       	tst	r11		
    854c:	04 38       	jl	$+10     	;abs 0x8556
    854e:	1b 93       	cmp	#1,	r11	;r3 As==01
    8550:	08 34       	jge	$+18     	;abs 0x8562
    8552:	1a 93       	cmp	#1,	r10	;r3 As==01
    8554:	06 2c       	jc	$+14     	;abs 0x8562
    8556:	0e 48       	mov	r8,	r14	
    8558:	0f 49       	mov	r9,	r15	
    855a:	b0 12 64 61 	call	#0x6164	
    855e:	30 40 a4 94 	br	#0x94a4	
    8562:	82 4a 48 15 	mov	r10,	&0x1548	
    8566:	82 4b 4a 15 	mov	r11,	&0x154a	
    856a:	d2 43 b2 11 	mov.b	#1,	&0x11b2	;r3 As==01
    856e:	b0 12 32 4e 	call	#0x4e32	
    8572:	82 48 bc 12 	mov	r8,	&0x12bc	
    8576:	82 49 be 12 	mov	r9,	&0x12be	
    857a:	82 4a ac 12 	mov	r10,	&0x12ac	
    857e:	82 4b ae 12 	mov	r11,	&0x12ae	
    8582:	81 4f 2c 00 	mov	r15,	44(r1)	;0x002c(r1)
    8586:	b0 12 36 5e 	call	#0x5e36	
    858a:	30 40 5e 8b 	br	#0x8b5e	
    858e:	b0 12 32 4e 	call	#0x4e32	
    8592:	1e 42 2a 11 	mov	&0x112a,r14	
    8596:	0e 93       	tst	r14		
    8598:	04 20       	jnz	$+10     	;abs 0x85a2
    859a:	b0 12 44 4e 	call	#0x4e44	
    859e:	30 40 2a 8b 	br	#0x8b2a	
    85a2:	2e 92       	cmp	#4,	r14	;r2 As==10
    85a4:	02 24       	jz	$+6      	;abs 0x85aa
    85a6:	30 40 9c 93 	br	#0x939c	
    85aa:	92 43 2a 11 	mov	#1,	&0x112a	;r3 As==01
    85ae:	18 3c       	jmp	$+50     	;abs 0x85e0
    85b0:	5f 42 9c 15 	mov.b	&0x159c,r15	
    85b4:	7f 53       	add.b	#-1,	r15	;r3 As==11
    85b6:	c2 4f 9c 15 	mov.b	r15,	&0x159c	
    85ba:	04 24       	jz	$+10     	;abs 0x85c4
    85bc:	7f 40 03 00 	mov.b	#3,	r15	;#0x0003
    85c0:	30 40 60 94 	br	#0x9460	
    85c4:	b0 12 32 4e 	call	#0x4e32	
    85c8:	1e 42 2a 11 	mov	&0x112a,r14	
    85cc:	2e 92       	cmp	#4,	r14	;r2 As==10
    85ce:	02 20       	jnz	$+6      	;abs 0x85d4
    85d0:	30 40 9c 93 	br	#0x939c	
    85d4:	0e 93       	tst	r14		
    85d6:	02 24       	jz	$+6      	;abs 0x85dc
    85d8:	30 40 9c 93 	br	#0x939c	
    85dc:	a2 43 2a 11 	mov	#2,	&0x112a	;r3 As==10
    85e0:	b0 12 44 4e 	call	#0x4e44	
    85e4:	b0 12 98 5b 	call	#0x5b98	
    85e8:	30 40 a4 94 	br	#0x94a4	
    85ec:	b0 12 32 4e 	call	#0x4e32	
    85f0:	d2 42 af 11 09 11 	mov.b	&0x11af,&0x1109	
    85f6:	e2 43 3a 11 	mov.b	#2,	&0x113a	;r3 As==10
    85fa:	b0 12 44 4e 	call	#0x4e44	
    85fe:	5f 42 09 11 	mov.b	&0x1109,r15	
    8602:	5f 93       	cmp.b	#1,	r15	;r3 As==01
    8604:	14 24       	jz	$+42     	;abs 0x862e
    8606:	08 28       	jnc	$+18     	;abs 0x8618
    8608:	6f 93       	cmp.b	#2,	r15	;r3 As==10
    860a:	1b 24       	jz	$+56     	;abs 0x8642
    860c:	7f 90 0c 00 	cmp.b	#12,	r15	;#0x000c
    8610:	02 24       	jz	$+6      	;abs 0x8616
    8612:	30 40 a4 94 	br	#0x94a4	
    8616:	db 3c       	jmp	$+440    	;abs 0x87ce
    8618:	b0 12 5e 52 	call	#0x525e	
    861c:	4f 93       	tst.b	r15		
    861e:	02 24       	jz	$+6      	;abs 0x8624
    8620:	30 40 5e 88 	br	#0x885e	
    8624:	a2 92 2a 11 	cmp	#4,	&0x112a	;r2 As==10
    8628:	1a 20       	jnz	$+54     	;abs 0x865e
    862a:	30 40 5e 88 	br	#0x885e	
    862e:	5f 43       	mov.b	#1,	r15	;r3 As==01
    8630:	b0 12 b0 5a 	call	#0x5ab0	
    8634:	4f 93       	tst.b	r15		
    8636:	02 20       	jnz	$+6      	;abs 0x863c
    8638:	30 40 a4 94 	br	#0x94a4	
    863c:	6f 43       	mov.b	#2,	r15	;r3 As==10
    863e:	30 40 60 94 	br	#0x9460	
    8642:	5f 43       	mov.b	#1,	r15	;r3 As==01
    8644:	b0 12 46 64 	call	#0x6446	
    8648:	b0 12 5e 52 	call	#0x525e	
    864c:	6f 93       	cmp.b	#2,	r15	;r3 As==10
    864e:	03 20       	jnz	$+8      	;abs 0x8656
    8650:	a2 92 2a 11 	cmp	#4,	&0x112a	;r2 As==10
    8654:	04 20       	jnz	$+10     	;abs 0x865e
    8656:	b0 12 4c 6b 	call	#0x6b4c	
    865a:	30 40 a4 94 	br	#0x94a4	
    865e:	b0 12 b0 5a 	call	#0x5ab0	
    8662:	30 40 a4 94 	br	#0x94a4	
    8666:	1f 42 94 15 	mov	&0x1594,r15	
    866a:	1e 42 cc 11 	mov	&0x11cc,r14	
    866e:	c2 43 38 11 	mov.b	#0,	&0x1138	;r3 As==00
    8672:	82 43 94 15 	mov	#0,	&0x1594	;r3 As==00
    8676:	0f 93       	tst	r15		
    8678:	aa 24       	jz	$+342    	;abs 0x87ce
    867a:	b0 12 e0 7b 	call	#0x7be0	
    867e:	a7 3c       	jmp	$+336    	;abs 0x87ce
    8680:	c2 93 bb 11 	tst.b	&0x11bb	
    8684:	02 20       	jnz	$+6      	;abs 0x868a
    8686:	30 40 a4 94 	br	#0x94a4	
    868a:	c2 93 45 11 	tst.b	&0x1145	
    868e:	02 20       	jnz	$+6      	;abs 0x8694
    8690:	30 40 a4 94 	br	#0x94a4	
    8694:	c2 43 45 11 	mov.b	#0,	&0x1145	;r3 As==00
    8698:	30 40 a4 94 	br	#0x94a4	
    869c:	1d 42 f0 11 	mov	&0x11f0,r13	
    86a0:	1e 42 f2 11 	mov	&0x11f2,r14	
    86a4:	7f 40 03 00 	mov.b	#3,	r15	;#0x0003
    86a8:	d2 3c       	jmp	$+422    	;abs 0x884e
    86aa:	d2 b3 d5 14 	bit.b	#1,	&0x14d5	;r3 As==01
    86ae:	02 24       	jz	$+6      	;abs 0x86b4
    86b0:	30 40 a4 94 	br	#0x94a4	
    86b4:	c2 93 2c 11 	tst.b	&0x112c	
    86b8:	02 20       	jnz	$+6      	;abs 0x86be
    86ba:	30 40 a4 94 	br	#0x94a4	
    86be:	5f 42 30 11 	mov.b	&0x1130,r15	
    86c2:	0f 5f       	rla	r15		
    86c4:	1b 4f 26 15 	mov	5414(r15),r11	;0x1526(r15)
    86c8:	cb 93 06 00 	tst.b	6(r11)		;0x0006(r11)
    86cc:	09 20       	jnz	$+20     	;abs 0x86e0
    86ce:	b0 12 3c 4c 	call	#0x4c3c	
    86d2:	0e 43       	clr	r14		
    86d4:	0f 4b       	mov	r11,	r15	
    86d6:	b0 12 a8 60 	call	#0x60a8	
    86da:	7f 42       	mov.b	#8,	r15	;r2 As==11
    86dc:	b0 12 4c 4e 	call	#0x4e4c	
    86e0:	d2 4b 08 00 67 13 	mov.b	8(r11),	&0x1367	;0x0008(r11)
    86e6:	5f 42 d5 14 	mov.b	&0x14d5,r15	
    86ea:	5f d3       	bis.b	#1,	r15	;r3 As==01
    86ec:	c2 4f d5 14 	mov.b	r15,	&0x14d5	
    86f0:	82 93 7e 11 	tst	&0x117e	
    86f4:	76 20       	jnz	$+238    	;abs 0x87e2
    86f6:	2f 4b       	mov	@r11,	r15	
    86f8:	cf 93 01 00 	tst.b	1(r15)		;0x0001(r15)
    86fc:	0c 24       	jz	$+26     	;abs 0x8716
    86fe:	5e 42 e1 11 	mov.b	&0x11e1,r14	
    8702:	cf 4e 03 00 	mov.b	r14,	3(r15)	;0x0003(r15)
    8706:	5e 53       	inc.b	r14		
    8708:	c2 4e e1 11 	mov.b	r14,	&0x11e1	
    870c:	3e 40 e1 11 	mov	#4577,	r14	;#0x11e1
    8710:	7f 40 4c 00 	mov.b	#76,	r15	;#0x004c
    8714:	0b 3c       	jmp	$+24     	;abs 0x872c
    8716:	5e 42 e0 11 	mov.b	&0x11e0,r14	
    871a:	cf 4e 03 00 	mov.b	r14,	3(r15)	;0x0003(r15)
    871e:	5e 53       	inc.b	r14		
    8720:	c2 4e e0 11 	mov.b	r14,	&0x11e0	
    8724:	3e 40 e0 11 	mov	#4576,	r14	;#0x11e0
    8728:	7f 40 49 00 	mov.b	#73,	r15	;#0x0049
    872c:	b0 12 f0 76 	call	#0x76f0	
    8730:	c2 43 7b 13 	mov.b	#0,	&0x137b	;r3 As==00
    8734:	5f 42 e2 11 	mov.b	&0x11e2,r15	
    8738:	c2 4f 5e 13 	mov.b	r15,	&0x135e	
    873c:	c2 4f 7a 13 	mov.b	r15,	&0x137a	
    8740:	5f 42 e5 11 	mov.b	&0x11e5,r15	
    8744:	c2 4f a2 14 	mov.b	r15,	&0x14a2	
    8748:	c2 4f 79 13 	mov.b	r15,	&0x1379	
    874c:	5f 42 e3 11 	mov.b	&0x11e3,r15	
    8750:	c2 4f 78 13 	mov.b	r15,	&0x1378	
    8754:	c2 93 d2 11 	tst.b	&0x11d2	
    8758:	05 24       	jz	$+12     	;abs 0x8764
    875a:	7f 90 03 00 	cmp.b	#3,	r15	;#0x0003
    875e:	02 28       	jnc	$+6      	;abs 0x8764
    8760:	e2 43 78 13 	mov.b	#2,	&0x1378	;r3 As==10
    8764:	d2 42 78 13 44 11 	mov.b	&0x1378,&0x1144	
    876a:	82 9b 88 15 	cmp	r11,	&0x1588	
    876e:	03 20       	jnz	$+8      	;abs 0x8776
    8770:	c2 43 3c 15 	mov.b	#0,	&0x153c	;r3 As==00
    8774:	03 3c       	jmp	$+8      	;abs 0x877c
    8776:	d2 42 e6 11 3c 15 	mov.b	&0x11e6,&0x153c	
    877c:	5d 4b 06 00 	mov.b	6(r11),	r13	;0x0006(r11)
    8780:	5f 4b 07 00 	mov.b	7(r11),	r15	;0x0007(r11)
    8784:	0d 5f       	add	r15,	r13	
    8786:	3d 50 07 00 	add	#7,	r13	;#0x0007
    878a:	0d 5d       	rla	r13		
    878c:	0e 4d       	mov	r13,	r14	
    878e:	8d 10       	swpb	r13		
    8790:	8d 11       	sxt	r13		
    8792:	8d 10       	swpb	r13		
    8794:	8d 11       	sxt	r13		
    8796:	0f 4d       	mov	r13,	r15	
    8798:	82 4e 72 13 	mov	r14,	&0x1372	
    879c:	82 4f 74 13 	mov	r15,	&0x1374	
    87a0:	2d 4b       	mov	@r11,	r13	
    87a2:	5d 4d 01 00 	mov.b	1(r13),	r13	;0x0001(r13)
    87a6:	3d f0 20 00 	and	#32,	r13	;#0x0020
    87aa:	09 24       	jz	$+20     	;abs 0x87be
    87ac:	0c 4e       	mov	r14,	r12	
    87ae:	0d 4f       	mov	r15,	r13	
    87b0:	3c 50 36 00 	add	#54,	r12	;#0x0036
    87b4:	0d 63       	adc	r13		
    87b6:	82 4c 72 13 	mov	r12,	&0x1372	
    87ba:	82 4d 74 13 	mov	r13,	&0x1374	
    87be:	82 4b 7e 11 	mov	r11,	&0x117e	
    87c2:	7f 40 0c 00 	mov.b	#12,	r15	;#0x000c
    87c6:	b0 12 6c 59 	call	#0x596c	
    87ca:	4f 93       	tst.b	r15		
    87cc:	04 24       	jz	$+10     	;abs 0x87d6
    87ce:	b0 12 a4 6b 	call	#0x6ba4	
    87d2:	30 40 a4 94 	br	#0x94a4	
    87d6:	7f 40 0c 00 	mov.b	#12,	r15	;#0x000c
    87da:	b0 12 ae 6d 	call	#0x6dae	
    87de:	30 40 a4 94 	br	#0x94a4	
    87e2:	7f f0 fe ff 	and.b	#-2,	r15	;#0xfffe
    87e6:	c2 4f d5 14 	mov.b	r15,	&0x14d5	
    87ea:	30 40 a4 94 	br	#0x94a4	
    87ee:	82 93 88 15 	tst	&0x1588	
    87f2:	02 24       	jz	$+6      	;abs 0x87f8
    87f4:	30 40 a4 94 	br	#0x94a4	
    87f8:	c2 93 70 13 	tst.b	&0x1370	
    87fc:	02 20       	jnz	$+6      	;abs 0x8802
    87fe:	30 40 a4 94 	br	#0x94a4	
    8802:	0f 43       	clr	r15		
    8804:	1e 4f 66 11 	mov	4454(r15),r14	;0x1166(r15)
    8808:	0e 93       	tst	r14		
    880a:	16 24       	jz	$+46     	;abs 0x8838
    880c:	5d 4e 08 00 	mov.b	8(r14),	r13	;0x0008(r14)
    8810:	4d 93       	tst.b	r13		
    8812:	12 34       	jge	$+38     	;abs 0x8838
    8814:	82 4e 88 15 	mov	r14,	&0x1588	
    8818:	c2 4d 46 11 	mov.b	r13,	&0x1146	
    881c:	7f 40 07 00 	mov.b	#7,	r15	;#0x0007
    8820:	b0 12 2c 50 	call	#0x502c	
    8824:	0f 93       	tst	r15		
    8826:	02 20       	jnz	$+6      	;abs 0x882c
    8828:	30 40 a4 94 	br	#0x94a4	
    882c:	82 43 88 15 	mov	#0,	&0x1588	;r3 As==00
    8830:	7f 40 09 00 	mov.b	#9,	r15	;#0x0009
    8834:	30 40 60 94 	br	#0x9460	
    8838:	2f 53       	incd	r15		
    883a:	3f 90 0e 00 	cmp	#14,	r15	;#0x000e
    883e:	e2 23       	jnz	$-58     	;abs 0x8804
    8840:	30 40 a4 94 	br	#0x94a4	
    8844:	1d 42 b8 12 	mov	&0x12b8,r13	
    8848:	1e 42 ba 12 	mov	&0x12ba,r14	
    884c:	4f 43       	clr.b	r15		
    884e:	b0 12 0e 54 	call	#0x540e	
    8852:	30 40 a4 94 	br	#0x94a4	
    8856:	b0 12 42 7c 	call	#0x7c42	
    885a:	30 40 a4 94 	br	#0x94a4	
    885e:	b0 12 4e 7f 	call	#0x7f4e	
    8862:	30 40 a4 94 	br	#0x94a4	
    8866:	3e 40 78 15 	mov	#5496,	r14	;#0x1578
    886a:	4f 43       	clr.b	r15		
    886c:	b0 12 2c 50 	call	#0x502c	
    8870:	30 40 a4 94 	br	#0x94a4	
    8874:	b2 40 03 00 a0 12 	mov	#3,	&0x12a0	;#0x0003
    887a:	30 40 a4 94 	br	#0x94a4	
    887e:	4f 43       	clr.b	r15		
    8880:	b0 12 46 64 	call	#0x6446	
    8884:	92 43 a0 12 	mov	#1,	&0x12a0	;r3 As==01
    8888:	6f 43       	mov.b	#2,	r15	;r3 As==10
    888a:	b0 12 02 5a 	call	#0x5a02	
    888e:	30 40 a4 94 	br	#0x94a4	
    8892:	0f 41       	mov	r1,	r15	
    8894:	b0 12 78 64 	call	#0x6478	
    8898:	4f 93       	tst.b	r15		
    889a:	06 20       	jnz	$+14     	;abs 0x88a8
    889c:	6f 41       	mov.b	@r1,	r15	
    889e:	c2 9f ce 11 	cmp.b	r15,	&0x11ce	
    88a2:	02 34       	jge	$+6      	;abs 0x88a8
    88a4:	c2 4f ce 11 	mov.b	r15,	&0x11ce	
    88a8:	17 42 84 11 	mov	&0x1184,r7	
    88ac:	18 42 86 11 	mov	&0x1186,r8	
    88b0:	1a 42 3e 15 	mov	&0x153e,r10	
    88b4:	1b 42 40 15 	mov	&0x1540,r11	
    88b8:	5f 43       	mov.b	#1,	r15	;r3 As==01
    88ba:	b0 12 f4 53 	call	#0x53f4	
    88be:	0e 8a       	sub	r10,	r14	
    88c0:	0f 7b       	subc	r11,	r15	
    88c2:	0f 98       	cmp	r8,	r15	
    88c4:	02 2c       	jc	$+6      	;abs 0x88ca
    88c6:	30 40 b2 8a 	br	#0x8ab2	
    88ca:	04 20       	jnz	$+10     	;abs 0x88d4
    88cc:	0e 97       	cmp	r7,	r14	
    88ce:	02 2c       	jc	$+6      	;abs 0x88d4
    88d0:	30 40 b2 8a 	br	#0x8ab2	
    88d4:	f2 50 d3 ff ce 11 	add.b	#-45,	&0x11ce	;#0xffd3
    88da:	b0 12 ee 50 	call	#0x50ee	
    88de:	b0 12 28 51 	call	#0x5128	
    88e2:	b0 12 3e 52 	call	#0x523e	
    88e6:	a2 42 2a 11 	mov	#4,	&0x112a	;r2 As==10
    88ea:	5d 42 ce 11 	mov.b	&0x11ce,r13	
    88ee:	c2 93 62 11 	tst.b	&0x1162	
    88f2:	0a 24       	jz	$+22     	;abs 0x8908
    88f4:	5e 42 d4 14 	mov.b	&0x14d4,r14	
    88f8:	4f 4e       	mov.b	r14,	r15	
    88fa:	1f 52 84 15 	add	&0x1584,r15	
    88fe:	cf 4d 00 00 	mov.b	r13,	0(r15)	;0x0000(r15)
    8902:	5e 53       	inc.b	r14		
    8904:	c2 4e d4 14 	mov.b	r14,	&0x14d4	
    8908:	d2 92 62 11 d4 14 	cmp.b	&0x1162,&0x14d4	
    890e:	02 20       	jnz	$+6      	;abs 0x8914
    8910:	d2 43 3a 15 	mov.b	#1,	&0x153a	;r3 As==01
    8914:	4f 43       	clr.b	r15		
    8916:	b0 12 b0 5a 	call	#0x5ab0	
    891a:	7f 90 09 00 	cmp.b	#9,	r15	;#0x0009
    891e:	02 24       	jz	$+6      	;abs 0x8924
    8920:	30 40 a4 94 	br	#0x94a4	
    8924:	b0 12 78 50 	call	#0x5078	
    8928:	30 40 a4 94 	br	#0x94a4	
    892c:	b0 12 32 4e 	call	#0x4e32	
    8930:	5b 42 fa 14 	mov.b	&0x14fa,r11	
    8934:	b0 12 44 4e 	call	#0x4e44	
    8938:	b0 12 32 4e 	call	#0x4e32	
    893c:	d2 43 f2 14 	mov.b	#1,	&0x14f2	;r3 As==01
    8940:	c2 4b fa 14 	mov.b	r11,	&0x14fa	
    8944:	b0 12 44 4e 	call	#0x4e44	
    8948:	b0 12 08 53 	call	#0x5308	
    894c:	b0 12 3e 52 	call	#0x523e	
    8950:	a2 42 2a 11 	mov	#4,	&0x112a	;r2 As==10
    8954:	5f 43       	mov.b	#1,	r15	;r3 As==01
    8956:	b0 12 6c 59 	call	#0x596c	
    895a:	4f 93       	tst.b	r15		
    895c:	02 20       	jnz	$+6      	;abs 0x8962
    895e:	30 40 a4 94 	br	#0x94a4	
    8962:	c2 93 3c 14 	tst.b	&0x143c	
    8966:	02 24       	jz	$+6      	;abs 0x896c
    8968:	b0 12 e4 5c 	call	#0x5ce4	
    896c:	3e 40 d9 11 	mov	#4569,	r14	;#0x11d9
    8970:	4f 43       	clr.b	r15		
    8972:	b0 12 f0 76 	call	#0x76f0	
    8976:	3e 40 ec 11 	mov	#4588,	r14	;#0x11ec
    897a:	7f 40 53 00 	mov.b	#83,	r15	;#0x0053
    897e:	b0 12 f0 76 	call	#0x76f0	
    8982:	3e 40 ea 11 	mov	#4586,	r14	;#0x11ea
    8986:	7f 40 50 00 	mov.b	#80,	r15	;#0x0050
    898a:	b0 12 f0 76 	call	#0x76f0	
    898e:	3e 40 db 11 	mov	#4571,	r14	;#0x11db
    8992:	7f 40 03 00 	mov.b	#3,	r15	;#0x0003
    8996:	b0 12 f0 76 	call	#0x76f0	
    899a:	3e 40 da 11 	mov	#4570,	r14	;#0x11da
    899e:	6f 43       	mov.b	#2,	r15	;r3 As==10
    89a0:	b0 12 f0 76 	call	#0x76f0	
    89a4:	3e 40 dc 11 	mov	#4572,	r14	;#0x11dc
    89a8:	6f 42       	mov.b	#4,	r15	;r2 As==10
    89aa:	b0 12 f0 76 	call	#0x76f0	
    89ae:	3e 40 d8 11 	mov	#4568,	r14	;#0x11d8
    89b2:	7f 40 f0 ff 	mov.b	#-16,	r15	;#0xfff0
    89b6:	b0 12 f0 76 	call	#0x76f0	
    89ba:	5f 43       	mov.b	#1,	r15	;r3 As==01
    89bc:	b0 12 02 5a 	call	#0x5a02	
    89c0:	b0 12 8c 77 	call	#0x778c	
    89c4:	30 40 a4 94 	br	#0x94a4	
    89c8:	1f 42 2a 11 	mov	&0x112a,r15	
    89cc:	3f 92       	cmp	#8,	r15	;r2 As==11
    89ce:	0b 24       	jz	$+24     	;abs 0x89e6
    89d0:	02 2c       	jc	$+6      	;abs 0x89d6
    89d2:	30 40 a4 94 	br	#0x94a4	
    89d6:	3f 50 f1 ff 	add	#-15,	r15	;#0xfff1
    89da:	3f 90 03 00 	cmp	#3,	r15	;#0x0003
    89de:	02 28       	jnc	$+6      	;abs 0x89e4
    89e0:	30 40 a4 94 	br	#0x94a4	
    89e4:	08 3c       	jmp	$+18     	;abs 0x89f6
    89e6:	4f 43       	clr.b	r15		
    89e8:	b0 12 96 69 	call	#0x6996	
    89ec:	4f 93       	tst.b	r15		
    89ee:	02 24       	jz	$+6      	;abs 0x89f4
    89f0:	30 40 e4 85 	br	#0x85e4	
    89f4:	9e 3c       	jmp	$+318    	;abs 0x8b32
    89f6:	b0 12 96 50 	call	#0x5096	
    89fa:	4f 93       	tst.b	r15		
    89fc:	66 20       	jnz	$+206    	;abs 0x8aca
    89fe:	b0 12 96 69 	call	#0x6996	
    8a02:	4f 93       	tst.b	r15		
    8a04:	62 24       	jz	$+198    	;abs 0x8aca
    8a06:	30 40 e4 85 	br	#0x85e4	
    8a0a:	4f 43       	clr.b	r15		
    8a0c:	b0 12 96 69 	call	#0x6996	
    8a10:	4f 93       	tst.b	r15		
    8a12:	0e 20       	jnz	$+30     	;abs 0x8a30
    8a14:	b0 12 08 53 	call	#0x5308	
    8a18:	b2 90 07 00 2a 11 	cmp	#7,	&0x112a	;#0x0007
    8a1e:	04 20       	jnz	$+10     	;abs 0x8a28
    8a20:	b0 12 ee 50 	call	#0x50ee	
    8a24:	b0 12 2a 59 	call	#0x592a	
    8a28:	b0 12 3e 52 	call	#0x523e	
    8a2c:	30 40 a4 94 	br	#0x94a4	
    8a30:	7f 40 14 00 	mov.b	#20,	r15	;#0x0014
    8a34:	30 40 60 94 	br	#0x9460	
    8a38:	b0 12 32 4e 	call	#0x4e32	
    8a3c:	5b 42 07 11 	mov.b	&0x1107,r11	
    8a40:	b0 12 44 4e 	call	#0x4e44	
    8a44:	4b 93       	tst.b	r11		
    8a46:	05 24       	jz	$+12     	;abs 0x8a52
    8a48:	5b 93       	cmp.b	#1,	r11	;r3 As==01
    8a4a:	02 24       	jz	$+6      	;abs 0x8a50
    8a4c:	30 40 a4 94 	br	#0x94a4	
    8a50:	74 3c       	jmp	$+234    	;abs 0x8b3a
    8a52:	1f 42 2a 11 	mov	&0x112a,r15	
    8a56:	3f 53       	add	#-1,	r15	;r3 As==11
    8a58:	3f 90 11 00 	cmp	#17,	r15	;#0x0011
    8a5c:	02 28       	jnc	$+6      	;abs 0x8a62
    8a5e:	30 40 a4 94 	br	#0x94a4	
    8a62:	0f 5f       	rla	r15		
    8a64:	10 4f 34 9a 	br	-26060(r15)	;0x9a34(r15)
    8a68:	b0 12 32 4e 	call	#0x4e32	
    8a6c:	82 93 28 11 	tst	&0x1128	
    8a70:	02 24       	jz	$+6      	;abs 0x8a76
    8a72:	30 40 9c 93 	br	#0x939c	
    8a76:	92 43 28 11 	mov	#1,	&0x1128	;r3 As==01
    8a7a:	b0 12 44 4e 	call	#0x4e44	
    8a7e:	b0 12 32 4e 	call	#0x4e32	
    8a82:	f2 d0 20 00 1d 00 	bis.b	#32,	&0x001d	;#0x0020
    8a88:	b0 12 44 4e 	call	#0x4e44	
    8a8c:	3d 40 28 00 	mov	#40,	r13	;#0x0028
    8a90:	0e 43       	clr	r14		
    8a92:	4f 43       	clr.b	r15		
    8a94:	b0 12 48 65 	call	#0x6548	
    8a98:	30 40 a4 94 	br	#0x94a4	
    8a9c:	b0 12 08 53 	call	#0x5308	
    8aa0:	b0 12 2a 59 	call	#0x592a	
    8aa4:	5f 43       	mov.b	#1,	r15	;r3 As==01
    8aa6:	b0 12 f4 53 	call	#0x53f4	
    8aaa:	82 4e 3e 15 	mov	r14,	&0x153e	
    8aae:	82 4f 40 15 	mov	r15,	&0x1540	
    8ab2:	7f 40 11 00 	mov.b	#17,	r15	;#0x0011
    8ab6:	30 40 60 94 	br	#0x9460	
    8aba:	b0 12 2c 6d 	call	#0x6d2c	
    8abe:	30 40 a4 94 	br	#0x94a4	
    8ac2:	b0 12 96 59 	call	#0x5996	
    8ac6:	30 40 a4 94 	br	#0x94a4	
    8aca:	b0 12 d4 6e 	call	#0x6ed4	
    8ace:	30 40 a4 94 	br	#0x94a4	
    8ad2:	b0 12 ee 50 	call	#0x50ee	
    8ad6:	b0 12 28 51 	call	#0x5128	
    8ada:	b0 12 32 4e 	call	#0x4e32	
    8ade:	4b 4f       	mov.b	r15,	r11	
    8ae0:	a2 92 28 11 	cmp	#4,	&0x1128	;r2 As==10
    8ae4:	0d 20       	jnz	$+28     	;abs 0x8b00
    8ae6:	a2 43 28 11 	mov	#2,	&0x1128	;r3 As==10
    8aea:	b0 12 ba 45 	call	#0x45ba	
    8aee:	b0 12 c0 45 	call	#0x45c0	
    8af2:	7f 40 07 00 	mov.b	#7,	r15	;#0x0007
    8af6:	b0 12 50 46 	call	#0x4650	
    8afa:	b0 12 ba 45 	call	#0x45ba	
    8afe:	4f 4b       	mov.b	r11,	r15	
    8b00:	b0 12 44 4e 	call	#0x4e44	
    8b04:	82 43 28 11 	mov	#0,	&0x1128	;r3 As==00
    8b08:	b0 12 68 65 	call	#0x6568	
    8b0c:	b0 12 32 4e 	call	#0x4e32	
    8b10:	f2 f0 df ff 1d 00 	and.b	#-33,	&0x001d	;#0xffdf
    8b16:	b0 12 44 4e 	call	#0x4e44	
    8b1a:	b0 12 78 65 	call	#0x6578	
    8b1e:	c2 43 82 11 	mov.b	#0,	&0x1182	;r3 As==00
    8b22:	b0 12 3e 52 	call	#0x523e	
    8b26:	82 43 2a 11 	mov	#0,	&0x112a	;r3 As==00
    8b2a:	b0 12 1a 7e 	call	#0x7e1a	
    8b2e:	30 40 a4 94 	br	#0x94a4	
    8b32:	b0 12 18 84 	call	#0x8418	
    8b36:	30 40 a4 94 	br	#0x94a4	
    8b3a:	b0 12 32 4e 	call	#0x4e32	
    8b3e:	82 93 ac 11 	tst	&0x11ac	
    8b42:	02 20       	jnz	$+6      	;abs 0x8b48
    8b44:	30 40 9c 93 	br	#0x939c	
    8b48:	81 4f 2c 00 	mov	r15,	44(r1)	;0x002c(r1)
    8b4c:	b0 12 d0 4e 	call	#0x4ed0	
    8b50:	06 3c       	jmp	$+14     	;abs 0x8b5e
    8b52:	b0 12 32 4e 	call	#0x4e32	
    8b56:	81 4f 2c 00 	mov	r15,	44(r1)	;0x002c(r1)
    8b5a:	b0 12 64 6f 	call	#0x6f64	
    8b5e:	1f 41 2c 00 	mov	44(r1),	r15	;0x002c(r1)
    8b62:	30 40 9c 93 	br	#0x939c	
    8b66:	b0 12 32 4e 	call	#0x4e32	
    8b6a:	d2 42 f9 14 04 11 	mov.b	&0x14f9,&0x1104	
    8b70:	f2 40 03 00 24 11 	mov.b	#3,	&0x1124	;#0x0003
    8b76:	b0 12 44 4e 	call	#0x4e44	
    8b7a:	c2 93 04 11 	tst.b	&0x1104	
    8b7e:	02 20       	jnz	$+6      	;abs 0x8b84
    8b80:	b0 12 10 69 	call	#0x6910	
    8b84:	c2 93 04 11 	tst.b	&0x1104	
    8b88:	02 24       	jz	$+6      	;abs 0x8b8e
    8b8a:	30 40 a4 94 	br	#0x94a4	
    8b8e:	7f 40 15 00 	mov.b	#21,	r15	;#0x0015
    8b92:	30 40 60 94 	br	#0x9460	
    8b96:	5f 43       	mov.b	#1,	r15	;r3 As==01
    8b98:	b0 12 ba 51 	call	#0x51ba	
    8b9c:	b0 12 32 4e 	call	#0x4e32	
    8ba0:	82 43 ac 11 	mov	#0,	&0x11ac	;r3 As==00
    8ba4:	b0 12 44 4e 	call	#0x4e44	
    8ba8:	7f 40 13 00 	mov.b	#19,	r15	;#0x0013
    8bac:	30 40 60 94 	br	#0x9460	
    8bb0:	1b 42 40 14 	mov	&0x1440,r11	
    8bb4:	68 4b       	mov.b	@r11,	r8	
    8bb6:	68 83       	decd.b	r8		
    8bb8:	58 82 79 11 	sub.b	&0x1179,r8	
    8bbc:	b0 12 32 4e 	call	#0x4e32	
    8bc0:	b0 12 44 4e 	call	#0x4e44	
    8bc4:	1a 42 40 14 	mov	&0x1440,r10	
    8bc8:	4f 48       	mov.b	r8,	r15	
    8bca:	0e 4a       	mov	r10,	r14	
    8bcc:	0e 5f       	add	r15,	r14	
    8bce:	5e 4e 1b 00 	mov.b	27(r14),r14	;0x001b(r14)
    8bd2:	7e f0 7f 00 	and.b	#127,	r14	;#0x007f
    8bd6:	ca 4e 00 00 	mov.b	r14,	0(r10)	;0x0000(r10)
    8bda:	0f 5a       	add	r10,	r15	
    8bdc:	db 4f 1a 00 94 00 	mov.b	26(r15),148(r11);0x001a(r15), 0x0094(r11)
    8be2:	eb 4a 95 00 	mov.b	@r10,	149(r11);0x0095(r11)
    8be6:	ca 48 00 00 	mov.b	r8,	0(r10)	;0x0000(r10)
    8bea:	b2 90 07 00 2a 11 	cmp	#7,	&0x112a	;#0x0007
    8bf0:	02 24       	jz	$+6      	;abs 0x8bf6
    8bf2:	30 40 18 92 	br	#0x9218	
    8bf6:	5f 4a 02 00 	mov.b	2(r10),	r15	;0x0002(r10)
    8bfa:	3f f0 30 00 	and	#48,	r15	;#0x0030
    8bfe:	3f 90 11 00 	cmp	#17,	r15	;#0x0011
    8c02:	06 38       	jl	$+14     	;abs 0x8c10
    8c04:	b2 90 03 00 a0 12 	cmp	#3,	&0x12a0	;#0x0003
    8c0a:	02 24       	jz	$+6      	;abs 0x8c10
    8c0c:	30 40 18 92 	br	#0x9218	
    8c10:	5f 4a 01 00 	mov.b	1(r10),	r15	;0x0001(r10)
    8c14:	3f f2       	and	#8,	r15	;r2 As==11
    8c16:	06 24       	jz	$+14     	;abs 0x8c24
    8c18:	b2 90 03 00 a0 12 	cmp	#3,	&0x12a0	;#0x0003
    8c1e:	02 24       	jz	$+6      	;abs 0x8c24
    8c20:	30 40 18 92 	br	#0x9218	
    8c24:	b0 12 5e 52 	call	#0x525e	
    8c28:	6f 93       	cmp.b	#2,	r15	;r3 As==10
    8c2a:	02 20       	jnz	$+6      	;abs 0x8c30
    8c2c:	30 40 84 8e 	br	#0x8e84	
    8c30:	7f 90 0c 00 	cmp.b	#12,	r15	;#0x000c
    8c34:	02 20       	jnz	$+6      	;abs 0x8c3a
    8c36:	30 40 9a 8e 	br	#0x8e9a	
    8c3a:	4f 93       	tst.b	r15		
    8c3c:	02 24       	jz	$+6      	;abs 0x8c42
    8c3e:	30 40 18 92 	br	#0x9218	
    8c42:	c2 93 34 11 	tst.b	&0x1134	
    8c46:	02 20       	jnz	$+6      	;abs 0x8c4c
    8c48:	30 40 18 92 	br	#0x9218	
    8c4c:	f2 90 03 00 6e 15 	cmp.b	#3,	&0x156e	;#0x0003
    8c52:	4d 20       	jnz	$+156    	;abs 0x8cee
    8c54:	c2 93 d4 14 	tst.b	&0x14d4	
    8c58:	02 24       	jz	$+6      	;abs 0x8c5e
    8c5a:	30 40 18 92 	br	#0x9218	
    8c5e:	5f 4a 01 00 	mov.b	1(r10),	r15	;0x0001(r10)
    8c62:	3f f0 07 00 	and	#7,	r15	;#0x0007
    8c66:	3f 90 03 00 	cmp	#3,	r15	;#0x0003
    8c6a:	02 24       	jz	$+6      	;abs 0x8c70
    8c6c:	30 40 18 92 	br	#0x9218	
    8c70:	fa 92 1a 00 	cmp.b	#8,	26(r10)	;r2 As==11, 0x001a(r10)
    8c74:	02 24       	jz	$+6      	;abs 0x8c7a
    8c76:	30 40 18 92 	br	#0x9218	
    8c7a:	5f 4a 1c 00 	mov.b	28(r10),r15	;0x001c(r10)
    8c7e:	8f 10       	swpb	r15		
    8c80:	5e 4a 1b 00 	mov.b	27(r10),r14	;0x001b(r10)
    8c84:	0f de       	bis	r14,	r15	
    8c86:	82 4f ea 11 	mov	r15,	&0x11ea	
    8c8a:	3e 40 ea 11 	mov	#4586,	r14	;#0x11ea
    8c8e:	7f 40 50 00 	mov.b	#80,	r15	;#0x0050
    8c92:	b0 12 f0 76 	call	#0x76f0	
    8c96:	5f 4a 1e 00 	mov.b	30(r10),r15	;0x001e(r10)
    8c9a:	8f 10       	swpb	r15		
    8c9c:	5e 4a 1d 00 	mov.b	29(r10),r14	;0x001d(r10)
    8ca0:	0f de       	bis	r14,	r15	
    8ca2:	82 4f e8 11 	mov	r15,	&0x11e8	
    8ca6:	3e 40 e8 11 	mov	#4584,	r14	;#0x11e8
    8caa:	7f 40 4b 00 	mov.b	#75,	r15	;#0x004b
    8cae:	b0 12 f0 76 	call	#0x76f0	
    8cb2:	5f 4a 20 00 	mov.b	32(r10),r15	;0x0020(r10)
    8cb6:	8f 10       	swpb	r15		
    8cb8:	5f da 1f 00 	bis.b	31(r10),r15	;0x001f(r10)
    8cbc:	b0 12 3c 77 	call	#0x773c	
    8cc0:	5f 4a 21 00 	mov.b	33(r10),r15	;0x0021(r10)
    8cc4:	8f 10       	swpb	r15		
    8cc6:	5e 4a 20 00 	mov.b	32(r10),r14	;0x0020(r10)
    8cca:	0f de       	bis	r14,	r15	
    8ccc:	82 4f ec 11 	mov	r15,	&0x11ec	
    8cd0:	3e 40 ec 11 	mov	#4588,	r14	;#0x11ec
    8cd4:	7f 40 53 00 	mov.b	#83,	r15	;#0x0053
    8cd8:	b0 12 f0 76 	call	#0x76f0	
    8cdc:	d2 53 d4 14 	inc.b	&0x14d4	
    8ce0:	d2 43 3a 15 	mov.b	#1,	&0x153a	;r3 As==01
    8ce4:	f2 f0 fd ff dc 13 	and.b	#-3,	&0x13dc	;#0xfffd
    8cea:	4f 43       	clr.b	r15		
    8cec:	16 3c       	jmp	$+46     	;abs 0x8d1a
    8cee:	5e 4a 01 00 	mov.b	1(r10),	r14	;0x0001(r10)
    8cf2:	3e f0 07 00 	and	#7,	r14	;#0x0007
    8cf6:	02 24       	jz	$+6      	;abs 0x8cfc
    8cf8:	30 40 18 92 	br	#0x9218	
    8cfc:	c2 93 d1 11 	tst.b	&0x11d1	
    8d00:	02 20       	jnz	$+6      	;abs 0x8d06
    8d02:	30 40 18 92 	br	#0x9218	
    8d06:	5e 42 d4 14 	mov.b	&0x14d4,r14	
    8d0a:	5e 92 62 11 	cmp.b	&0x1162,r14	
    8d0e:	09 28       	jnc	$+20     	;abs 0x8d22
    8d10:	d2 43 3a 15 	mov.b	#1,	&0x153a	;r3 As==01
    8d14:	f2 f0 fd ff dc 13 	and.b	#-3,	&0x13dc	;#0xfffd
    8d1a:	b0 12 b0 5a 	call	#0x5ab0	
    8d1e:	30 40 18 92 	br	#0x9218	
    8d22:	1c 42 84 15 	mov	&0x1584,r12	
    8d26:	58 42 c0 14 	mov.b	&0x14c0,r8	
    8d2a:	5f 4a 02 00 	mov.b	2(r10),	r15	;0x0002(r10)
    8d2e:	0d 4f       	mov	r15,	r13	
    8d30:	3d f0 c0 00 	and	#192,	r13	;#0x00c0
    8d34:	3d 90 80 00 	cmp	#128,	r13	;#0x0080
    8d38:	05 24       	jz	$+12     	;abs 0x8d44
    8d3a:	3d 90 c0 00 	cmp	#192,	r13	;#0x00c0
    8d3e:	02 24       	jz	$+6      	;abs 0x8d44
    8d40:	30 40 18 92 	br	#0x9218	
    8d44:	02 12       	push	r2		
    8d46:	32 c2       	dint			
    8d48:	03 43       	nop			
    8d4a:	c2 4e 30 01 	mov.b	r14,	&0x0130	
    8d4e:	f2 40 24 00 38 01 	mov.b	#36,	&0x0138	;#0x0024
    8d54:	1b 42 3a 01 	mov	&0x013a,r11	
    8d58:	32 41       	pop	r2		
    8d5a:	0b 5c       	add	r12,	r11	
    8d5c:	cb 4f 00 00 	mov.b	r15,	0(r11)	;0x0000(r11)
    8d60:	7f 40 06 00 	mov.b	#6,	r15	;#0x0006
    8d64:	12 c3       	clrc			
    8d66:	6b 10       	rrc.b	@r11		
    8d68:	7f 53       	add.b	#-1,	r15	;r3 As==11
    8d6a:	fc 23       	jnz	$-6      	;abs 0x8d64
    8d6c:	5f 4a 05 00 	mov.b	5(r10),	r15	;0x0005(r10)
    8d70:	8f 10       	swpb	r15		
    8d72:	5e 4a 04 00 	mov.b	4(r10),	r14	;0x0004(r10)
    8d76:	0f de       	bis	r14,	r15	
    8d78:	8b 4f 02 00 	mov	r15,	2(r11)	;0x0002(r11)
    8d7c:	5f 4a 02 00 	mov.b	2(r10),	r15	;0x0002(r10)
    8d80:	3f f0 c0 00 	and	#192,	r15	;#0x00c0
    8d84:	3f 90 80 00 	cmp	#128,	r15	;#0x0080
    8d88:	09 20       	jnz	$+20     	;abs 0x8d9c
    8d8a:	5f 4a 07 00 	mov.b	7(r10),	r15	;0x0007(r10)
    8d8e:	8f 10       	swpb	r15		
    8d90:	5e 4a 06 00 	mov.b	6(r10),	r14	;0x0006(r10)
    8d94:	0f de       	bis	r14,	r15	
    8d96:	8b 4f 04 00 	mov	r15,	4(r11)	;0x0004(r11)
    8d9a:	07 3c       	jmp	$+16     	;abs 0x8daa
    8d9c:	0e 4a       	mov	r10,	r14	
    8d9e:	3e 50 06 00 	add	#6,	r14	;#0x0006
    8da2:	0f 4b       	mov	r11,	r15	
    8da4:	2f 52       	add	#4,	r15	;r2 As==10
    8da6:	b0 12 f4 46 	call	#0x46f4	
    8daa:	cb 48 0c 00 	mov.b	r8,	12(r11)	;0x000c(r11)
    8dae:	cb 43 0d 00 	mov.b	#0,	13(r11)	;r3 As==00, 0x000d(r11)
    8db2:	db 4a 1a 00 0e 00 	mov.b	26(r10),14(r11)	;0x001a(r10), 0x000e(r11)
    8db8:	db 4a 1b 00 0f 00 	mov.b	27(r10),15(r11)	;0x001b(r10), 0x000f(r11)
    8dbe:	5e 4a 1c 00 	mov.b	28(r10),r14	;0x001c(r10)
    8dc2:	4e 5e       	rla.b	r14		
    8dc4:	0e 43       	clr	r14		
    8dc6:	0e 6e       	rlc	r14		
    8dc8:	cb 4e 10 00 	mov.b	r14,	16(r11)	;0x0010(r11)
    8dcc:	db 4a 95 00 11 00 	mov.b	149(r10),17(r11)	;0x0095(r10), 0x0011(r11)
    8dd2:	0f 4a       	mov	r10,	r15	
    8dd4:	3f 50 90 00 	add	#144,	r15	;#0x0090
    8dd8:	b0 12 c8 45 	call	#0x45c8	
    8ddc:	8b 4e 12 00 	mov	r14,	18(r11)	;0x0012(r11)
    8de0:	8b 4f 14 00 	mov	r15,	20(r11)	;0x0014(r11)
    8de4:	8b 43 16 00 	mov	#0,	22(r11)	;r3 As==00, 0x0016(r11)
    8de8:	cb 43 18 00 	mov.b	#0,	24(r11)	;r3 As==00, 0x0018(r11)
    8dec:	cb 43 19 00 	mov.b	#0,	25(r11)	;r3 As==00, 0x0019(r11)
    8df0:	8b 43 1a 00 	mov	#0,	26(r11)	;r3 As==00, 0x001a(r11)
    8df4:	8b 43 1c 00 	mov	#0,	28(r11)	;r3 As==00, 0x001c(r11)
    8df8:	8b 43 1e 00 	mov	#0,	30(r11)	;r3 As==00, 0x001e(r11)
    8dfc:	8b 43 20 00 	mov	#0,	32(r11)	;r3 As==00, 0x0020(r11)
    8e00:	cb 43 22 00 	mov.b	#0,	34(r11)	;r3 As==00, 0x0022(r11)
    8e04:	1e 42 84 15 	mov	&0x1584,r14	
    8e08:	5b 42 d4 14 	mov.b	&0x14d4,r11	
    8e0c:	02 12       	push	r2		
    8e0e:	32 c2       	dint			
    8e10:	03 43       	nop			
    8e12:	c2 4b 30 01 	mov.b	r11,	&0x0130	
    8e16:	f2 40 24 00 38 01 	mov.b	#36,	&0x0138	;#0x0024
    8e1c:	1d 42 3a 01 	mov	&0x013a,r13	
    8e20:	32 41       	pop	r2		
    8e22:	0d 5e       	add	r14,	r13	
    8e24:	4f 43       	clr.b	r15		
    8e26:	27 3c       	jmp	$+80     	;abs 0x8e76
    8e28:	9e 9d 02 00 02 00 	cmp	2(r13),	2(r14)	;0x0002(r13), 0x0002(r14)
    8e2e:	20 20       	jnz	$+66     	;abs 0x8e70
    8e30:	6c 4e       	mov.b	@r14,	r12	
    8e32:	6c 9d       	cmp.b	@r13,	r12	
    8e34:	1d 20       	jnz	$+60     	;abs 0x8e70
    8e36:	6c 93       	cmp.b	#2,	r12	;r3 As==10
    8e38:	06 20       	jnz	$+14     	;abs 0x8e46
    8e3a:	9e 9d 04 00 04 00 	cmp	4(r13),	4(r14)	;0x0004(r13), 0x0004(r14)
    8e40:	17 20       	jnz	$+48     	;abs 0x8e70
    8e42:	30 40 18 92 	br	#0x9218	
    8e46:	7c 90 03 00 	cmp.b	#3,	r12	;#0x0003
    8e4a:	12 20       	jnz	$+38     	;abs 0x8e70
    8e4c:	9e 9d 04 00 04 00 	cmp	4(r13),	4(r14)	;0x0004(r13), 0x0004(r14)
    8e52:	0e 20       	jnz	$+30     	;abs 0x8e70
    8e54:	9e 9d 06 00 06 00 	cmp	6(r13),	6(r14)	;0x0006(r13), 0x0006(r14)
    8e5a:	0a 20       	jnz	$+22     	;abs 0x8e70
    8e5c:	9e 9d 08 00 08 00 	cmp	8(r13),	8(r14)	;0x0008(r13), 0x0008(r14)
    8e62:	06 20       	jnz	$+14     	;abs 0x8e70
    8e64:	9e 9d 0a 00 0a 00 	cmp	10(r13),10(r14)	;0x000a(r13), 0x000a(r14)
    8e6a:	02 20       	jnz	$+6      	;abs 0x8e70
    8e6c:	30 40 18 92 	br	#0x9218	
    8e70:	5f 53       	inc.b	r15		
    8e72:	3e 50 24 00 	add	#36,	r14	;#0x0024
    8e76:	4f 9b       	cmp.b	r11,	r15	
    8e78:	d7 23       	jnz	$-80     	;abs 0x8e28
    8e7a:	5f 53       	inc.b	r15		
    8e7c:	c2 4f d4 14 	mov.b	r15,	&0x14d4	
    8e80:	30 40 18 92 	br	#0x9218	
    8e84:	b2 90 03 00 a0 12 	cmp	#3,	&0x12a0	;#0x0003
    8e8a:	02 24       	jz	$+6      	;abs 0x8e90
    8e8c:	30 40 18 92 	br	#0x9218	
    8e90:	fa d0 80 ff 00 00 	bis.b	#-128,	0(r10)	;#0xff80, 0x0000(r10)
    8e96:	30 40 18 92 	br	#0x9218	
    8e9a:	5b 4a 01 00 	mov.b	1(r10),	r11	;0x0001(r10)
    8e9e:	7b f0 07 00 	and.b	#7,	r11	;#0x0007
    8ea2:	7b 90 03 00 	cmp.b	#3,	r11	;#0x0003
    8ea6:	04 20       	jnz	$+10     	;abs 0x8eb0
    8ea8:	5b 4a 1a 00 	mov.b	26(r10),r11	;0x001a(r10)
    8eac:	7b 50 03 00 	add.b	#3,	r11	;#0x0003
    8eb0:	b0 12 32 4e 	call	#0x4e32	
    8eb4:	c1 4f 2b 00 	mov.b	r15,	43(r1)	;0x002b(r1)
    8eb8:	c2 93 38 11 	tst.b	&0x1138	
    8ebc:	6e 24       	jz	$+222    	;abs 0x8f9a
    8ebe:	f2 f0 fd ff fa 13 	and.b	#-3,	&0x13fa	;#0xfffd
    8ec4:	82 43 cc 11 	mov	#0,	&0x11cc	;r3 As==00
    8ec8:	18 42 94 15 	mov	&0x1594,r8	
    8ecc:	5b 93       	cmp.b	#1,	r11	;r3 As==01
    8ece:	04 24       	jz	$+10     	;abs 0x8ed8
    8ed0:	7b 90 05 00 	cmp.b	#5,	r11	;#0x0005
    8ed4:	5e 20       	jnz	$+190    	;abs 0x8f92
    8ed6:	0d 3c       	jmp	$+28     	;abs 0x8ef2
    8ed8:	08 93       	tst	r8		
    8eda:	5b 24       	jz	$+184    	;abs 0x8f92
    8edc:	5e 48 09 00 	mov.b	9(r8),	r14	;0x0009(r8)
    8ee0:	7e 93       	cmp.b	#-1,	r14	;r3 As==11
    8ee2:	03 24       	jz	$+8      	;abs 0x8eea
    8ee4:	4f 4e       	mov.b	r14,	r15	
    8ee6:	b0 12 30 79 	call	#0x7930	
    8eea:	f8 40 fe ff 09 00 	mov.b	#-2,	9(r8)	;#0xfffe, 0x0009(r8)
    8ef0:	50 3c       	jmp	$+162    	;abs 0x8f92
    8ef2:	5e 4a 1c 00 	mov.b	28(r10),r14	;0x001c(r10)
    8ef6:	5d 4a 1b 00 	mov.b	27(r10),r13	;0x001b(r10)
    8efa:	5c 4a 1d 00 	mov.b	29(r10),r12	;0x001d(r10)
    8efe:	c2 93 c6 11 	tst.b	&0x11c6	
    8f02:	47 24       	jz	$+144    	;abs 0x8f92
    8f04:	f2 f0 fd ff e6 13 	and.b	#-3,	&0x13e6	;#0xfffd
    8f0a:	c2 43 c6 11 	mov.b	#0,	&0x11c6	;r3 As==00
    8f0e:	4c 93       	tst.b	r12		
    8f10:	33 20       	jnz	$+104    	;abs 0x8f78
    8f12:	4e 4e       	mov.b	r14,	r14	
    8f14:	8e 10       	swpb	r14		
    8f16:	4d 4d       	mov.b	r13,	r13	
    8f18:	0e dd       	bis	r13,	r14	
    8f1a:	82 4e ec 11 	mov	r14,	&0x11ec	
    8f1e:	3e 40 ec 11 	mov	#4588,	r14	;#0x11ec
    8f22:	7f 40 53 00 	mov.b	#83,	r15	;#0x0053
    8f26:	b0 12 f0 76 	call	#0x76f0	
    8f2a:	b2 93 e8 11 	cmp	#-1,	&0x11e8	;r3 As==11
    8f2e:	2f 24       	jz	$+96     	;abs 0x8f8e
    8f30:	5e 4a 02 00 	mov.b	2(r10),	r14	;0x0002(r10)
    8f34:	7d 40 06 00 	mov.b	#6,	r13	;#0x0006
    8f38:	12 c3       	clrc			
    8f3a:	4e 10       	rrc.b	r14		
    8f3c:	7d 53       	add.b	#-1,	r13	;r3 As==11
    8f3e:	fc 23       	jnz	$-6      	;abs 0x8f38
    8f40:	7e 90 03 00 	cmp.b	#3,	r14	;#0x0003
    8f44:	24 20       	jnz	$+74     	;abs 0x8f8e
    8f46:	0e 41       	mov	r1,	r14	
    8f48:	3e 50 22 00 	add	#34,	r14	;#0x0022
    8f4c:	0f 4a       	mov	r10,	r15	
    8f4e:	b0 12 56 49 	call	#0x4956	
    8f52:	92 41 22 00 f8 11 	mov	34(r1),	&0x11f8	;0x0022(r1)
    8f58:	92 41 24 00 fa 11 	mov	36(r1),	&0x11fa	;0x0024(r1)
    8f5e:	92 41 26 00 fc 11 	mov	38(r1),	&0x11fc	;0x0026(r1)
    8f64:	92 41 28 00 fe 11 	mov	40(r1),	&0x11fe	;0x0028(r1)
    8f6a:	3e 40 f8 11 	mov	#4600,	r14	;#0x11f8
    8f6e:	7f 40 4a 00 	mov.b	#74,	r15	;#0x004a
    8f72:	b0 12 f0 76 	call	#0x76f0	
    8f76:	0b 3c       	jmp	$+24     	;abs 0x8f8e
    8f78:	b2 43 ea 11 	mov	#-1,	&0x11ea	;r3 As==11
    8f7c:	3e 40 ea 11 	mov	#4586,	r14	;#0x11ea
    8f80:	7f 40 50 00 	mov.b	#80,	r15	;#0x0050
    8f84:	b0 12 f0 76 	call	#0x76f0	
    8f88:	b0 12 8c 77 	call	#0x778c	
    8f8c:	02 3c       	jmp	$+6      	;abs 0x8f92
    8f8e:	b0 12 08 64 	call	#0x6408	
    8f92:	b0 12 12 66 	call	#0x6612	
    8f96:	30 40 10 92 	br	#0x9210	
    8f9a:	6b 82       	sub.b	#4,	r11	;r2 As==10
    8f9c:	7b 90 07 00 	cmp.b	#7,	r11	;#0x0007
    8fa0:	02 28       	jnc	$+6      	;abs 0x8fa6
    8fa2:	30 40 10 92 	br	#0x9210	
    8fa6:	4e 4b       	mov.b	r11,	r14	
    8fa8:	0e 5e       	rla	r14		
    8faa:	10 4e 56 9a 	br	-26026(r14)	;0x9a56(r14)
    8fae:	5e 4a 02 00 	mov.b	2(r10),	r14	;0x0002(r10)
    8fb2:	7d 40 06 00 	mov.b	#6,	r13	;#0x0006
    8fb6:	12 c3       	clrc			
    8fb8:	4e 10       	rrc.b	r14		
    8fba:	7d 53       	add.b	#-1,	r13	;r3 As==11
    8fbc:	fc 23       	jnz	$-6      	;abs 0x8fb6
    8fbe:	7e 90 03 00 	cmp.b	#3,	r14	;#0x0003
    8fc2:	02 24       	jz	$+6      	;abs 0x8fc8
    8fc4:	30 40 10 92 	br	#0x9210	
    8fc8:	0e 41       	mov	r1,	r14	
    8fca:	2e 53       	incd	r14		
    8fcc:	10 3c       	jmp	$+34     	;abs 0x8fee
    8fce:	5e 4a 02 00 	mov.b	2(r10),	r14	;0x0002(r10)
    8fd2:	7d 40 06 00 	mov.b	#6,	r13	;#0x0006
    8fd6:	12 c3       	clrc			
    8fd8:	4e 10       	rrc.b	r14		
    8fda:	7d 53       	add.b	#-1,	r13	;r3 As==11
    8fdc:	fc 23       	jnz	$-6      	;abs 0x8fd6
    8fde:	7e 90 03 00 	cmp.b	#3,	r14	;#0x0003
    8fe2:	02 24       	jz	$+6      	;abs 0x8fe8
    8fe4:	30 40 10 92 	br	#0x9210	
    8fe8:	0e 41       	mov	r1,	r14	
    8fea:	3e 50 0a 00 	add	#10,	r14	;#0x000a
    8fee:	0f 4a       	mov	r10,	r15	
    8ff0:	b0 12 56 49 	call	#0x4956	
    8ff4:	30 40 10 92 	br	#0x9210	
    8ff8:	5e 4a 02 00 	mov.b	2(r10),	r14	;0x0002(r10)
    8ffc:	4d 4e       	mov.b	r14,	r13	
    8ffe:	7d f0 c0 ff 	and.b	#-64,	r13	;#0xffc0
    9002:	c1 4d 2a 00 	mov.b	r13,	42(r1)	;0x002a(r1)
    9006:	02 38       	jl	$+6      	;abs 0x900c
    9008:	30 40 10 92 	br	#0x9210	
    900c:	4d 4e       	mov.b	r14,	r13	
    900e:	7d f0 0c 00 	and.b	#12,	r13	;#0x000c
    9012:	04 4a       	mov	r10,	r4	
    9014:	7d 92       	cmp.b	#8,	r13	;r2 As==11
    9016:	02 20       	jnz	$+6      	;abs 0x901c
    9018:	34 52       	add	#8,	r4	;r2 As==11
    901a:	07 3c       	jmp	$+16     	;abs 0x902a
    901c:	7d 90 0c 00 	cmp.b	#12,	r13	;#0x000c
    9020:	02 24       	jz	$+6      	;abs 0x9026
    9022:	24 52       	add	#4,	r4	;r2 As==10
    9024:	02 3c       	jmp	$+6      	;abs 0x902a
    9026:	34 50 0e 00 	add	#14,	r4	;#0x000e
    902a:	5d 4a 01 00 	mov.b	1(r10),	r13	;0x0001(r10)
    902e:	3d f0 40 00 	and	#64,	r13	;#0x0040
    9032:	02 24       	jz	$+6      	;abs 0x9038
    9034:	3e f2       	and	#8,	r14	;r2 As==11
    9036:	01 20       	jnz	$+4      	;abs 0x903a
    9038:	24 53       	incd	r4		
    903a:	05 43       	clr	r5		
    903c:	09 43       	clr	r9		
    903e:	5f 41 2a 00 	mov.b	42(r1),	r15	;0x002a(r1)
    9042:	18 45 66 11 	mov	4454(r5),r8	;0x1166(r5)
    9046:	08 93       	tst	r8		
    9048:	2b 24       	jz	$+88     	;abs 0x90a0
    904a:	2d 48       	mov	@r8,	r13	
    904c:	5e 4d 02 00 	mov.b	2(r13),	r14	;0x0002(r13)
    9050:	3e f0 0c 00 	and	#12,	r14	;#0x000c
    9054:	0e 5e       	rla	r14		
    9056:	0e 5e       	rla	r14		
    9058:	0e 5e       	rla	r14		
    905a:	0e 5e       	rla	r14		
    905c:	0e 9f       	cmp	r15,	r14	
    905e:	20 20       	jnz	$+66     	;abs 0x90a0
    9060:	3d 50 06 00 	add	#6,	r13	;#0x0006
    9064:	f1 90 80 ff 2a 00 	cmp.b	#-128,	42(r1)	;#0xff80, 0x002a(r1)
    906a:	02 20       	jnz	$+6      	;abs 0x9070
    906c:	67 43       	mov.b	#2,	r7	;r3 As==10
    906e:	01 3c       	jmp	$+4      	;abs 0x9072
    9070:	77 42       	mov.b	#8,	r7	;r2 As==11
    9072:	0b 43       	clr	r11		
    9074:	46 4b       	mov.b	r11,	r6	
    9076:	0c 4d       	mov	r13,	r12	
    9078:	0c 5b       	add	r11,	r12	
    907a:	0e 44       	mov	r4,	r14	
    907c:	0e 5b       	add	r11,	r14	
    907e:	ec 9e 00 00 	cmp.b	@r14,	0(r12)	;0x0000(r12)
    9082:	04 20       	jnz	$+10     	;abs 0x908c
    9084:	56 53       	inc.b	r6		
    9086:	1b 53       	inc	r11		
    9088:	4b 97       	cmp.b	r7,	r11	
    908a:	f4 2b       	jnc	$-22     	;abs 0x9074
    908c:	46 97       	cmp.b	r7,	r6	
    908e:	08 20       	jnz	$+18     	;abs 0x90a0
    9090:	09 93       	tst	r9		
    9092:	05 24       	jz	$+12     	;abs 0x909e
    9094:	2e 49       	mov	@r9,	r14	
    9096:	fe d0 10 00 01 00 	bis.b	#16,	1(r14)	;#0x0010, 0x0001(r14)
    909c:	01 3c       	jmp	$+4      	;abs 0x90a0
    909e:	09 48       	mov	r8,	r9	
    90a0:	25 53       	incd	r5		
    90a2:	35 90 0e 00 	cmp	#14,	r5	;#0x000e
    90a6:	cd 23       	jnz	$-100    	;abs 0x9042
    90a8:	09 93       	tst	r9		
    90aa:	06 24       	jz	$+14     	;abs 0x90b8
    90ac:	f9 d0 80 ff 08 00 	bis.b	#-128,	8(r9)	;#0xff80, 0x0008(r9)
    90b2:	7f 40 09 00 	mov.b	#9,	r15	;#0x0009
    90b6:	aa 3c       	jmp	$+342    	;abs 0x920c
    90b8:	1b 42 c6 13 	mov	&0x13c6,r11	
    90bc:	c2 93 ce 13 	tst.b	&0x13ce	
    90c0:	a7 20       	jnz	$+336    	;abs 0x9210
    90c2:	0e 41       	mov	r1,	r14	
    90c4:	3e 50 12 00 	add	#18,	r14	;#0x0012
    90c8:	0f 4a       	mov	r10,	r15	
    90ca:	b0 12 56 49 	call	#0x4956	
    90ce:	4f 93       	tst.b	r15		
    90d0:	9f 20       	jnz	$+320    	;abs 0x9210
    90d2:	5e 4a 02 00 	mov.b	2(r10),	r14	;0x0002(r10)
    90d6:	4e 93       	tst.b	r14		
    90d8:	9b 34       	jge	$+312    	;abs 0x9210
    90da:	4d 4e       	mov.b	r14,	r13	
    90dc:	7d f0 0c 00 	and.b	#12,	r13	;#0x000c
    90e0:	7d 92       	cmp.b	#8,	r13	;r2 As==11
    90e2:	06 24       	jz	$+14     	;abs 0x90f0
    90e4:	7d 90 0c 00 	cmp.b	#12,	r13	;#0x000c
    90e8:	06 24       	jz	$+14     	;abs 0x90f6
    90ea:	7d 40 03 00 	mov.b	#3,	r13	;#0x0003
    90ee:	05 3c       	jmp	$+12     	;abs 0x90fa
    90f0:	7d 40 07 00 	mov.b	#7,	r13	;#0x0007
    90f4:	02 3c       	jmp	$+6      	;abs 0x90fa
    90f6:	7d 40 0d 00 	mov.b	#13,	r13	;#0x000d
    90fa:	5c 4a 01 00 	mov.b	1(r10),	r12	;0x0001(r10)
    90fe:	3c f0 40 00 	and	#64,	r12	;#0x0040
    9102:	08 24       	jz	$+18     	;abs 0x9114
    9104:	3e b2       	bit	#8,	r14	;r2 As==11
    9106:	06 24       	jz	$+14     	;abs 0x9114
    9108:	5c 4a 05 00 	mov.b	5(r10),	r12	;0x0005(r10)
    910c:	8c 10       	swpb	r12		
    910e:	5d 4a 04 00 	mov.b	4(r10),	r13	;0x0004(r10)
    9112:	07 3c       	jmp	$+16     	;abs 0x9122
    9114:	4d 4d       	mov.b	r13,	r13	
    9116:	0d 5a       	add	r10,	r13	
    9118:	5c 4d 02 00 	mov.b	2(r13),	r12	;0x0002(r13)
    911c:	8c 10       	swpb	r12		
    911e:	5d 4d 01 00 	mov.b	1(r13),	r13	;0x0001(r13)
    9122:	0c dd       	bis	r13,	r12	
    9124:	4d 4e       	mov.b	r14,	r13	
    9126:	78 40 06 00 	mov.b	#6,	r8	;#0x0006
    912a:	30 40 66 94 	br	#0x9466	
    912e:	0d 41       	mov	r1,	r13	
    9130:	4f 4c       	mov.b	r12,	r15	
    9132:	b0 12 fc 4b 	call	#0x4bfc	
    9136:	e2 41 cc 13 	mov.b	@r1,	&0x13cc	
    913a:	d2 43 ce 13 	mov.b	#1,	&0x13ce	;r3 As==01
    913e:	3e 40 c6 13 	mov	#5062,	r14	;#0x13c6
    9142:	7f 40 07 00 	mov.b	#7,	r15	;#0x0007
    9146:	b0 12 2c 50 	call	#0x502c	
    914a:	0f 93       	tst	r15		
    914c:	61 24       	jz	$+196    	;abs 0x9210
    914e:	c2 43 ce 13 	mov.b	#0,	&0x13ce	;r3 As==00
    9152:	5e 3c       	jmp	$+190    	;abs 0x9210
    9154:	5e 4a 02 00 	mov.b	2(r10),	r14	;0x0002(r10)
    9158:	7d 40 06 00 	mov.b	#6,	r13	;#0x0006
    915c:	12 c3       	clrc			
    915e:	4e 10       	rrc.b	r14		
    9160:	7d 53       	add.b	#-1,	r13	;r3 As==11
    9162:	fc 23       	jnz	$-6      	;abs 0x915c
    9164:	7e 90 03 00 	cmp.b	#3,	r14	;#0x0003
    9168:	53 20       	jnz	$+168    	;abs 0x9210
    916a:	0e 41       	mov	r1,	r14	
    916c:	3e 50 1a 00 	add	#26,	r14	;#0x001a
    9170:	3e 3f       	jmp	$-386    	;abs 0x8fee
    9172:	c2 93 be 11 	tst.b	&0x11be	
    9176:	4c 24       	jz	$+154    	;abs 0x9210
    9178:	1d 42 ec 11 	mov	&0x11ec,r13	
    917c:	5c 43       	mov.b	#1,	r12	;r3 As==01
    917e:	3d 90 fe ff 	cmp	#-2,	r13	;#0xfffe
    9182:	01 20       	jnz	$+4      	;abs 0x9186
    9184:	4c 43       	clr.b	r12		
    9186:	1e 42 78 15 	mov	&0x1578,r14	
    918a:	ce 43 01 00 	mov.b	#0,	1(r14)	;r3 As==00, 0x0001(r14)
    918e:	4c 93       	tst.b	r12		
    9190:	03 24       	jz	$+8      	;abs 0x9198
    9192:	7b 40 80 ff 	mov.b	#-128,	r11	;#0xff80
    9196:	02 3c       	jmp	$+6      	;abs 0x919c
    9198:	7b 40 c0 ff 	mov.b	#-64,	r11	;#0xffc0
    919c:	ce 4b 02 00 	mov.b	r11,	2(r14)	;0x0002(r14)
    91a0:	1b 42 ea 11 	mov	&0x11ea,r11	
    91a4:	ce 4b 04 00 	mov.b	r11,	4(r14)	;0x0004(r14)
    91a8:	8b 10       	swpb	r11		
    91aa:	ce 4b 05 00 	mov.b	r11,	5(r14)	;0x0005(r14)
    91ae:	4c 93       	tst.b	r12		
    91b0:	08 24       	jz	$+18     	;abs 0x91c2
    91b2:	ce 4d 06 00 	mov.b	r13,	6(r14)	;0x0006(r14)
    91b6:	8d 10       	swpb	r13		
    91b8:	ce 4d 07 00 	mov.b	r13,	7(r14)	;0x0007(r14)
    91bc:	7e 40 07 00 	mov.b	#7,	r14	;#0x0007
    91c0:	07 3c       	jmp	$+16     	;abs 0x91d0
    91c2:	0f 4e       	mov	r14,	r15	
    91c4:	3f 50 06 00 	add	#6,	r15	;#0x0006
    91c8:	b0 12 48 45 	call	#0x4548	
    91cc:	7e 40 0d 00 	mov.b	#13,	r14	;#0x000d
    91d0:	c2 4e 7e 15 	mov.b	r14,	&0x157e	
    91d4:	f2 43 06 14 	mov.b	#-1,	&0x1406	;r3 As==11
    91d8:	c2 43 07 14 	mov.b	#0,	&0x1407	;r3 As==00
    91dc:	d2 93 d8 11 	cmp.b	#1,	&0x11d8	;r3 As==01
    91e0:	03 20       	jnz	$+8      	;abs 0x91e8
    91e2:	f2 40 40 00 07 14 	mov.b	#64,	&0x1407	;#0x0040
    91e8:	d2 93 d0 11 	cmp.b	#1,	&0x11d0	;r3 As==01
    91ec:	03 20       	jnz	$+8      	;abs 0x91f4
    91ee:	f2 d0 80 ff 07 14 	bis.b	#-128,	&0x1407	;#0xff80
    91f4:	d2 93 d2 11 	cmp.b	#1,	&0x11d2	;r3 As==01
    91f8:	03 20       	jnz	$+8      	;abs 0x9200
    91fa:	f2 d0 10 00 07 14 	bis.b	#16,	&0x1407	;#0x0010
    9200:	c2 43 08 14 	mov.b	#0,	&0x1408	;r3 As==00
    9204:	c2 43 09 14 	mov.b	#0,	&0x1409	;r3 As==00
    9208:	7f 40 0e 00 	mov.b	#14,	r15	;#0x000e
    920c:	b0 12 4c 4e 	call	#0x4e4c	
    9210:	5f 41 2b 00 	mov.b	43(r1),	r15	;0x002b(r1)
    9214:	b0 12 44 4e 	call	#0x4e44	
    9218:	82 4a 40 14 	mov	r10,	&0x1440	
    921c:	b0 12 32 4e 	call	#0x4e32	
    9220:	c2 43 c0 11 	mov.b	#0,	&0x11c0	;r3 As==00
    9224:	b0 12 44 4e 	call	#0x4e44	
    9228:	b0 12 66 6a 	call	#0x6a66	
    922c:	30 40 a4 94 	br	#0x94a4	
    9230:	c2 93 63 11 	tst.b	&0x1163	
    9234:	1a 20       	jnz	$+54     	;abs 0x926a
    9236:	1a 42 d0 13 	mov	&0x13d0,r10	
    923a:	1b 42 d2 13 	mov	&0x13d2,r11	
    923e:	b0 12 32 4e 	call	#0x4e32	
    9242:	18 42 ea 14 	mov	&0x14ea,r8	
    9246:	19 42 ec 14 	mov	&0x14ec,r9	
    924a:	18 52 e6 14 	add	&0x14e6,r8	
    924e:	19 62 e8 14 	addc	&0x14e8,r9	
    9252:	b0 12 44 4e 	call	#0x4e44	
    9256:	0e 48       	mov	r8,	r14	
    9258:	0f 49       	mov	r9,	r15	
    925a:	0e 5e       	rla	r14		
    925c:	0f 6f       	rlc	r15		
    925e:	43 12       	push.b	#0		;r3 As==00
    9260:	0c 4a       	mov	r10,	r12	
    9262:	0d 4b       	mov	r11,	r13	
    9264:	b0 12 36 66 	call	#0x6636	
    9268:	21 53       	incd	r1		
    926a:	6f 43       	mov.b	#2,	r15	;r3 As==10
    926c:	b0 12 f4 53 	call	#0x53f4	
    9270:	3e 3c       	jmp	$+126    	;abs 0x92ee
    9272:	6f 43       	mov.b	#2,	r15	;r3 As==10
    9274:	b0 12 f4 53 	call	#0x53f4	
    9278:	0a 4e       	mov	r14,	r10	
    927a:	0b 4f       	mov	r15,	r11	
    927c:	b0 12 32 4e 	call	#0x4e32	
    9280:	c2 43 f0 14 	mov.b	#0,	&0x14f0	;r3 As==00
    9284:	b0 12 44 4e 	call	#0x4e44	
    9288:	46 43       	clr.b	r6		
    928a:	3c 43       	mov	#-1,	r12	;r3 As==11
    928c:	3d 40 ff 7f 	mov	#32767,	r13	;#0x7fff
    9290:	07 43       	clr	r7		
    9292:	0e 47       	mov	r7,	r14	
    9294:	0e 5e       	rla	r14		
    9296:	0f 4e       	mov	r14,	r15	
    9298:	0f 5f       	rla	r15		
    929a:	0f 5f       	rla	r15		
    929c:	0f 5e       	add	r14,	r15	
    929e:	3f 50 d4 13 	add	#5076,	r15	;#0x13d4
    92a2:	ef b3 08 00 	bit.b	#2,	8(r15)	;r3 As==10, 0x0008(r15)
    92a6:	13 24       	jz	$+40     	;abs 0x92ce
    92a8:	08 4a       	mov	r10,	r8	
    92aa:	09 4b       	mov	r11,	r9	
    92ac:	28 8f       	sub	@r15,	r8	
    92ae:	19 7f 02 00 	subc	2(r15),	r9	;0x0002(r15)
    92b2:	1e 4f 04 00 	mov	4(r15),	r14	;0x0004(r15)
    92b6:	1f 4f 06 00 	mov	6(r15),	r15	;0x0006(r15)
    92ba:	0e 88       	sub	r8,	r14	
    92bc:	0f 79       	subc	r9,	r15	
    92be:	0f 9d       	cmp	r13,	r15	
    92c0:	03 38       	jl	$+8      	;abs 0x92c8
    92c2:	05 20       	jnz	$+12     	;abs 0x92ce
    92c4:	0e 9c       	cmp	r12,	r14	
    92c6:	03 2c       	jc	$+8      	;abs 0x92ce
    92c8:	0c 4e       	mov	r14,	r12	
    92ca:	0d 4f       	mov	r15,	r13	
    92cc:	56 43       	mov.b	#1,	r6	;r3 As==01
    92ce:	17 53       	inc	r7		
    92d0:	37 90 05 00 	cmp	#5,	r7	;#0x0005
    92d4:	de 23       	jnz	$-66     	;abs 0x9292
    92d6:	46 93       	tst.b	r6		
    92d8:	02 20       	jnz	$+6      	;abs 0x92de
    92da:	30 40 a4 94 	br	#0x94a4	
    92de:	0d 93       	tst	r13		
    92e0:	04 38       	jl	$+10     	;abs 0x92ea
    92e2:	1d 93       	cmp	#1,	r13	;r3 As==01
    92e4:	08 34       	jge	$+18     	;abs 0x92f6
    92e6:	1c 93       	cmp	#1,	r12	;r3 As==01
    92e8:	06 2c       	jc	$+14     	;abs 0x92f6
    92ea:	0e 4a       	mov	r10,	r14	
    92ec:	0f 4b       	mov	r11,	r15	
    92ee:	b0 12 6e 80 	call	#0x806e	
    92f2:	30 40 a4 94 	br	#0x94a4	
    92f6:	53 12       	push.b	#1		;r3 As==01
    92f8:	0e 4a       	mov	r10,	r14	
    92fa:	0f 4b       	mov	r11,	r15	
    92fc:	b0 12 36 66 	call	#0x6636	
    9300:	21 53       	incd	r1		
    9302:	d0 3c       	jmp	$+418    	;abs 0x94a4
    9304:	c2 93 1c 11 	tst.b	&0x111c	
    9308:	cd 24       	jz	$+412    	;abs 0x94a4
    930a:	f2 f0 fd ff c4 13 	and.b	#-3,	&0x13c4	;#0xfffd
    9310:	b0 12 fe 66 	call	#0x66fe	
    9314:	4a 4f       	mov.b	r15,	r10	
    9316:	b0 12 fe 66 	call	#0x66fe	
    931a:	4b 4f       	mov.b	r15,	r11	
    931c:	b0 12 fe 66 	call	#0x66fe	
    9320:	b0 12 be 66 	call	#0x66be	
    9324:	b0 12 ee 66 	call	#0x66ee	
    9328:	b0 12 9e 66 	call	#0x669e	
    932c:	b0 12 ae 66 	call	#0x66ae	
    9330:	1d 42 64 11 	mov	&0x1164,r13	
    9334:	3d 90 03 00 	cmp	#3,	r13	;#0x0003
    9338:	04 24       	jz	$+10     	;abs 0x9342
    933a:	3d 90 05 00 	cmp	#5,	r13	;#0x0005
    933e:	b2 20       	jnz	$+358    	;abs 0x94a4
    9340:	0c 3c       	jmp	$+26     	;abs 0x935a
    9342:	c2 43 1c 11 	mov.b	#0,	&0x111c	;r3 As==00
    9346:	c2 93 86 15 	tst.b	&0x1586	
    934a:	ac 20       	jnz	$+346    	;abs 0x94a4
    934c:	4e 4a       	mov.b	r10,	r14	
    934e:	8e 10       	swpb	r14		
    9350:	4f 4b       	mov.b	r11,	r15	
    9352:	0f de       	bis	r14,	r15	
    9354:	b0 12 3a 61 	call	#0x613a	
    9358:	a5 3c       	jmp	$+332    	;abs 0x94a4
    935a:	c2 43 1c 11 	mov.b	#0,	&0x111c	;r3 As==00
    935e:	d2 93 86 15 	cmp.b	#1,	&0x1586	;r3 As==01
    9362:	a0 20       	jnz	$+322    	;abs 0x94a4
    9364:	60 3c       	jmp	$+194    	;abs 0x9426
    9366:	1f 42 64 11 	mov	&0x1164,r15	
    936a:	3f 90 06 00 	cmp	#6,	r15	;#0x0006
    936e:	06 24       	jz	$+14     	;abs 0x937c
    9370:	3f 90 07 00 	cmp	#7,	r15	;#0x0007
    9374:	97 20       	jnz	$+304    	;abs 0x94a4
    9376:	c2 43 1c 11 	mov.b	#0,	&0x111c	;r3 As==00
    937a:	94 3c       	jmp	$+298    	;abs 0x94a4
    937c:	c2 43 1c 11 	mov.b	#0,	&0x111c	;r3 As==00
    9380:	c2 43 18 11 	mov.b	#0,	&0x1118	;r3 As==00
    9384:	8f 3c       	jmp	$+288    	;abs 0x94a4
    9386:	d2 93 12 11 	cmp.b	#1,	&0x1112	;r3 As==01
    938a:	02 20       	jnz	$+6      	;abs 0x9390
    938c:	b0 12 90 67 	call	#0x6790	
    9390:	b0 12 32 4e 	call	#0x4e32	
    9394:	c2 43 12 11 	mov.b	#0,	&0x1112	;r3 As==00
    9398:	c2 43 14 11 	mov.b	#0,	&0x1114	;r3 As==00
    939c:	b0 12 44 4e 	call	#0x4e44	
    93a0:	81 3c       	jmp	$+260    	;abs 0x94a4
    93a2:	b0 12 32 4e 	call	#0x4e32	
    93a6:	d2 42 02 12 00 11 	mov.b	&0x1202,&0x1100	
    93ac:	f2 40 03 00 16 11 	mov.b	#3,	&0x1116	;#0x0003
    93b2:	b0 12 44 4e 	call	#0x4e44	
    93b6:	5f 42 00 11 	mov.b	&0x1100,r15	
    93ba:	4f 93       	tst.b	r15		
    93bc:	03 24       	jz	$+8      	;abs 0x93c4
    93be:	5f 93       	cmp.b	#1,	r15	;r3 As==01
    93c0:	71 20       	jnz	$+228    	;abs 0x94a4
    93c2:	20 3c       	jmp	$+66     	;abs 0x9404
    93c4:	c2 93 03 11 	tst.b	&0x1103	
    93c8:	0e 24       	jz	$+30     	;abs 0x93e6
    93ca:	c2 93 1c 11 	tst.b	&0x111c	
    93ce:	0b 20       	jnz	$+24     	;abs 0x93e6
    93d0:	d2 43 1c 11 	mov.b	#1,	&0x111c	;r3 As==01
    93d4:	b2 40 03 00 64 11 	mov	#3,	&0x1164	;#0x0003
    93da:	c2 43 86 15 	mov.b	#0,	&0x1586	;r3 As==00
    93de:	b0 12 e6 67 	call	#0x67e6	
    93e2:	4f 93       	tst.b	r15		
    93e4:	5f 24       	jz	$+192    	;abs 0x94a4
    93e6:	4f 43       	clr.b	r15		
    93e8:	b0 12 c2 60 	call	#0x60c2	
    93ec:	1f 42 10 11 	mov	&0x1110,r15	
    93f0:	c2 4f 1f 12 	mov.b	r15,	&0x121f	
    93f4:	8f 10       	swpb	r15		
    93f6:	c2 4f 1e 12 	mov.b	r15,	&0x121e	
    93fa:	c2 43 21 12 	mov.b	#0,	&0x1221	;r3 As==00
    93fe:	c2 43 20 12 	mov.b	#0,	&0x1220	;r3 As==00
    9402:	50 3c       	jmp	$+162    	;abs 0x94a4
    9404:	c2 93 03 11 	tst.b	&0x1103	
    9408:	0e 24       	jz	$+30     	;abs 0x9426
    940a:	c2 93 1c 11 	tst.b	&0x111c	
    940e:	0b 20       	jnz	$+24     	;abs 0x9426
    9410:	d2 43 1c 11 	mov.b	#1,	&0x111c	;r3 As==01
    9414:	b2 40 05 00 64 11 	mov	#5,	&0x1164	;#0x0005
    941a:	d2 43 86 15 	mov.b	#1,	&0x1586	;r3 As==01
    941e:	b0 12 e6 67 	call	#0x67e6	
    9422:	4f 93       	tst.b	r15		
    9424:	3f 24       	jz	$+128    	;abs 0x94a4
    9426:	5f 43       	mov.b	#1,	r15	;r3 As==01
    9428:	b0 12 c2 60 	call	#0x60c2	
    942c:	3b 3c       	jmp	$+120    	;abs 0x94a4
    942e:	b0 12 90 67 	call	#0x6790	
    9432:	38 3c       	jmp	$+114    	;abs 0x94a4
    9434:	b0 12 32 4e 	call	#0x4e32	
    9438:	f2 f0 bf ff 22 00 	and.b	#-65,	&0x0022	;#0xffbf
    943e:	b0 12 44 4e 	call	#0x4e44	
    9442:	b0 12 ae 66 	call	#0x66ae	
    9446:	b0 12 de 66 	call	#0x66de	
    944a:	b0 12 ce 66 	call	#0x66ce	
    944e:	b0 12 32 4e 	call	#0x4e32	
    9452:	f2 f0 7f 00 21 00 	and.b	#127,	&0x0021	;#0x007f
    9458:	b0 12 44 4e 	call	#0x4e44	
    945c:	7f 40 1e 00 	mov.b	#30,	r15	;#0x001e
    9460:	b0 12 4c 4e 	call	#0x4e4c	
    9464:	1f 3c       	jmp	$+64     	;abs 0x94a4
    9466:	12 c3       	clrc			
    9468:	4d 10       	rrc.b	r13		
    946a:	78 53       	add.b	#-1,	r8	;r3 As==11
    946c:	fc 23       	jnz	$-6      	;abs 0x9466
    946e:	3e f0 0c 00 	and	#12,	r14	;#0x000c
    9472:	0e 11       	rra	r14		
    9474:	0e 11       	rra	r14		
    9476:	09 41       	mov	r1,	r9	
    9478:	39 50 12 00 	add	#18,	r9	;#0x0012
    947c:	09 12       	push	r9		
    947e:	4e 4e       	mov.b	r14,	r14	
    9480:	0f 4b       	mov	r11,	r15	
    9482:	b0 12 7a 4d 	call	#0x4d7a	
    9486:	21 53       	incd	r1		
    9488:	1e 42 c6 13 	mov	&0x13c6,r14	
    948c:	de d3 01 00 	bis.b	#1,	1(r14)	;r3 As==01, 0x0001(r14)
    9490:	5e 4b 02 00 	mov.b	2(r11),	r14	;0x0002(r11)
    9494:	5c 4b 01 00 	mov.b	1(r11),	r12	;0x0001(r11)
    9498:	3c b2       	bit	#8,	r12	;r2 As==11
    949a:	02 24       	jz	$+6      	;abs 0x94a0
    949c:	30 40 36 91 	br	#0x9136	
    94a0:	30 40 2e 91 	br	#0x912e	
    94a4:	31 50 2e 00 	add	#46,	r1	;#0x002e
    94a8:	34 41       	pop	r4		
    94aa:	35 41       	pop	r5		
    94ac:	36 41       	pop	r6		
    94ae:	37 41       	pop	r7		
    94b0:	38 41       	pop	r8		
    94b2:	39 41       	pop	r9		
    94b4:	3a 41       	pop	r10		
    94b6:	3b 41       	pop	r11		
    94b8:	30 41       	ret			

000094ba <RealMainP__Scheduler__runNextTask>:
    94ba:	f2 93 6d 15 	cmp.b	#-1,	&0x156d	;r3 As==11
    94be:	08 24       	jz	$+18     	;abs 0x94d0
    94c0:	b0 12 d8 49 	call	#0x49d8	
    94c4:	7f 93       	cmp.b	#-1,	r15	;r3 As==11
    94c6:	06 24       	jz	$+14     	;abs 0x94d4
    94c8:	b0 12 64 84 	call	#0x8464	
    94cc:	5f 43       	mov.b	#1,	r15	;r3 As==01
    94ce:	30 41       	ret			
    94d0:	4f 43       	clr.b	r15		
    94d2:	30 41       	ret			
    94d4:	4f 43       	clr.b	r15		
    94d6:	30 41       	ret			

000094d8 <sig_TIMERA0_VECTOR>:
    94d8:	0f 12       	push	r15		
    94da:	0e 12       	push	r14		
    94dc:	0d 12       	push	r13		
    94de:	0c 12       	push	r12		
    94e0:	4f 43       	clr.b	r15		
    94e2:	b0 12 f6 49 	call	#0x49f6	
    94e6:	3c 41       	pop	r12		
    94e8:	3d 41       	pop	r13		
    94ea:	3e 41       	pop	r14		
    94ec:	3f 41       	pop	r15		
    94ee:	b1 c0 f0 00 00 00 	bic	#240,	0(r1)	;#0x00f0, 0x0000(r1)
    94f4:	00 13       	reti			

000094f6 <sig_TIMERA1_VECTOR>:
    94f6:	0f 12       	push	r15		
    94f8:	0e 12       	push	r14		
    94fa:	0d 12       	push	r13		
    94fc:	0c 12       	push	r12		
    94fe:	1f 42 2e 01 	mov	&0x012e,r15	
    9502:	4f 4f       	mov.b	r15,	r15	
    9504:	12 c3       	clrc			
    9506:	4f 10       	rrc.b	r15		
    9508:	b0 12 f6 49 	call	#0x49f6	
    950c:	3c 41       	pop	r12		
    950e:	3d 41       	pop	r13		
    9510:	3e 41       	pop	r14		
    9512:	3f 41       	pop	r15		
    9514:	b1 c0 f0 00 00 00 	bic	#240,	0(r1)	;#0x00f0, 0x0000(r1)
    951a:	00 13       	reti			

0000951c <sig_TIMERB0_VECTOR>:
    951c:	0f 12       	push	r15		
    951e:	0e 12       	push	r14		
    9520:	0d 12       	push	r13		
    9522:	0c 12       	push	r12		
    9524:	4f 43       	clr.b	r15		
    9526:	b0 12 42 72 	call	#0x7242	
    952a:	3c 41       	pop	r12		
    952c:	3d 41       	pop	r13		
    952e:	3e 41       	pop	r14		
    9530:	3f 41       	pop	r15		
    9532:	b1 c0 f0 00 00 00 	bic	#240,	0(r1)	;#0x00f0, 0x0000(r1)
    9538:	00 13       	reti			

0000953a <sig_TIMERB1_VECTOR>:
    953a:	0f 12       	push	r15		
    953c:	0e 12       	push	r14		
    953e:	0d 12       	push	r13		
    9540:	0c 12       	push	r12		
    9542:	1f 42 1e 01 	mov	&0x011e,r15	
    9546:	4f 4f       	mov.b	r15,	r15	
    9548:	12 c3       	clrc			
    954a:	4f 10       	rrc.b	r15		
    954c:	b0 12 42 72 	call	#0x7242	
    9550:	3c 41       	pop	r12		
    9552:	3d 41       	pop	r13		
    9554:	3e 41       	pop	r14		
    9556:	3f 41       	pop	r15		
    9558:	b1 c0 f0 00 00 00 	bic	#240,	0(r1)	;#0x00f0, 0x0000(r1)
    955e:	00 13       	reti			

00009560 <sig_PORT1_VECTOR>:
    9560:	0f 12       	push	r15		
    9562:	0e 12       	push	r14		
    9564:	0d 12       	push	r13		
    9566:	0c 12       	push	r12		
    9568:	21 83       	decd	r1		
    956a:	5e 42 23 00 	mov.b	&0x0023,r14	
    956e:	5f 42 25 00 	mov.b	&0x0025,r15	
    9572:	4f fe       	and.b	r14,	r15	
    9574:	4f 4f       	mov.b	r15,	r15	
    9576:	81 4f 00 00 	mov	r15,	0(r1)	;0x0000(r1)
    957a:	91 b3 00 00 	bit	#1,	0(r1)	;r3 As==01, 0x0000(r1)
    957e:	0c 24       	jz	$+26     	;abs 0x9598
    9580:	f2 f0 fe ff 23 00 	and.b	#-2,	&0x0023	;#0xfffe
    9586:	a2 93 ac 11 	cmp	#2,	&0x11ac	;r3 As==10
    958a:	03 20       	jnz	$+8      	;abs 0x9592
    958c:	b0 12 24 6a 	call	#0x6a24	
    9590:	61 3c       	jmp	$+196    	;abs 0x9654
    9592:	d2 53 b5 11 	inc.b	&0x11b5	
    9596:	5e 3c       	jmp	$+190    	;abs 0x9654
    9598:	a1 b3 00 00 	bit	#2,	0(r1)	;r3 As==10, 0x0000(r1)
    959c:	05 24       	jz	$+12     	;abs 0x95a8
    959e:	5f 42 23 00 	mov.b	&0x0023,r15	
    95a2:	7f f0 fd ff 	and.b	#-3,	r15	;#0xfffd
    95a6:	54 3c       	jmp	$+170    	;abs 0x9650
    95a8:	a1 b2 00 00 	bit	#4,	0(r1)	;r2 As==10, 0x0000(r1)
    95ac:	05 24       	jz	$+12     	;abs 0x95b8
    95ae:	5f 42 23 00 	mov.b	&0x0023,r15	
    95b2:	7f f0 fb ff 	and.b	#-5,	r15	;#0xfffb
    95b6:	4c 3c       	jmp	$+154    	;abs 0x9650
    95b8:	b1 b2 00 00 	bit	#8,	0(r1)	;r2 As==11, 0x0000(r1)
    95bc:	05 24       	jz	$+12     	;abs 0x95c8
    95be:	5f 42 23 00 	mov.b	&0x0023,r15	
    95c2:	7f f0 f7 ff 	and.b	#-9,	r15	;#0xfff7
    95c6:	44 3c       	jmp	$+138    	;abs 0x9650
    95c8:	b1 b0 10 00 00 00 	bit	#16,	0(r1)	;#0x0010, 0x0000(r1)
    95ce:	21 24       	jz	$+68     	;abs 0x9612
    95d0:	f2 f0 ef ff 23 00 	and.b	#-17,	&0x0023	;#0xffef
    95d6:	a2 42 28 11 	mov	#4,	&0x1128	;r2 As==10
    95da:	f2 f0 ef ff 25 00 	and.b	#-17,	&0x0025	;#0xffef
    95e0:	f2 f0 ef ff 23 00 	and.b	#-17,	&0x0023	;#0xffef
    95e6:	b0 12 ba 45 	call	#0x45ba	
    95ea:	b0 12 c0 45 	call	#0x45c0	
    95ee:	0e 43       	clr	r14		
    95f0:	7f 40 1d 00 	mov.b	#29,	r15	;#0x001d
    95f4:	b0 12 5c 4a 	call	#0x4a5c	
    95f8:	b0 12 2a 4b 	call	#0x4b2a	
    95fc:	b0 12 ba 45 	call	#0x45ba	
    9600:	b0 12 ee 50 	call	#0x50ee	
    9604:	b0 12 28 51 	call	#0x5128	
    9608:	c2 43 82 11 	mov.b	#0,	&0x1182	;r3 As==00
    960c:	7f 40 12 00 	mov.b	#18,	r15	;#0x0012
    9610:	0b 3c       	jmp	$+24     	;abs 0x9628
    9612:	b1 b0 20 00 00 00 	bit	#32,	0(r1)	;#0x0020, 0x0000(r1)
    9618:	0a 24       	jz	$+22     	;abs 0x962e
    961a:	f2 f0 df ff 23 00 	and.b	#-33,	&0x0023	;#0xffdf
    9620:	b0 12 92 5d 	call	#0x5d92	
    9624:	7f 40 1c 00 	mov.b	#28,	r15	;#0x001c
    9628:	b0 12 4c 4e 	call	#0x4e4c	
    962c:	13 3c       	jmp	$+40     	;abs 0x9654
    962e:	b1 b0 40 00 00 00 	bit	#64,	0(r1)	;#0x0040, 0x0000(r1)
    9634:	05 24       	jz	$+12     	;abs 0x9640
    9636:	5f 42 23 00 	mov.b	&0x0023,r15	
    963a:	7f f0 bf ff 	and.b	#-65,	r15	;#0xffbf
    963e:	08 3c       	jmp	$+18     	;abs 0x9650
    9640:	b1 b0 80 00 00 00 	bit	#128,	0(r1)	;#0x0080, 0x0000(r1)
    9646:	06 24       	jz	$+14     	;abs 0x9654
    9648:	5f 42 23 00 	mov.b	&0x0023,r15	
    964c:	7f f0 7f 00 	and.b	#127,	r15	;#0x007f
    9650:	c2 4f 23 00 	mov.b	r15,	&0x0023	
    9654:	21 53       	incd	r1		
    9656:	3c 41       	pop	r12		
    9658:	3d 41       	pop	r13		
    965a:	3e 41       	pop	r14		
    965c:	3f 41       	pop	r15		
    965e:	b1 c0 f0 00 00 00 	bic	#240,	0(r1)	;#0x00f0, 0x0000(r1)
    9664:	00 13       	reti			

00009666 <sig_PORT2_VECTOR>:
    9666:	0f 12       	push	r15		
    9668:	0e 12       	push	r14		
    966a:	21 83       	decd	r1		
    966c:	5e 42 2b 00 	mov.b	&0x002b,r14	
    9670:	5f 42 2d 00 	mov.b	&0x002d,r15	
    9674:	4f fe       	and.b	r14,	r15	
    9676:	4f 4f       	mov.b	r15,	r15	
    9678:	81 4f 00 00 	mov	r15,	0(r1)	;0x0000(r1)
    967c:	91 b3 00 00 	bit	#1,	0(r1)	;r3 As==01, 0x0000(r1)
    9680:	05 24       	jz	$+12     	;abs 0x968c
    9682:	5f 42 2b 00 	mov.b	&0x002b,r15	
    9686:	7f f0 fe ff 	and.b	#-2,	r15	;#0xfffe
    968a:	3b 3c       	jmp	$+120    	;abs 0x9702
    968c:	a1 b3 00 00 	bit	#2,	0(r1)	;r3 As==10, 0x0000(r1)
    9690:	05 24       	jz	$+12     	;abs 0x969c
    9692:	5f 42 2b 00 	mov.b	&0x002b,r15	
    9696:	7f f0 fd ff 	and.b	#-3,	r15	;#0xfffd
    969a:	33 3c       	jmp	$+104    	;abs 0x9702
    969c:	a1 b2 00 00 	bit	#4,	0(r1)	;r2 As==10, 0x0000(r1)
    96a0:	05 24       	jz	$+12     	;abs 0x96ac
    96a2:	5f 42 2b 00 	mov.b	&0x002b,r15	
    96a6:	7f f0 fb ff 	and.b	#-5,	r15	;#0xfffb
    96aa:	2b 3c       	jmp	$+88     	;abs 0x9702
    96ac:	b1 b2 00 00 	bit	#8,	0(r1)	;r2 As==11, 0x0000(r1)
    96b0:	05 24       	jz	$+12     	;abs 0x96bc
    96b2:	5f 42 2b 00 	mov.b	&0x002b,r15	
    96b6:	7f f0 f7 ff 	and.b	#-9,	r15	;#0xfff7
    96ba:	23 3c       	jmp	$+72     	;abs 0x9702
    96bc:	b1 b0 10 00 00 00 	bit	#16,	0(r1)	;#0x0010, 0x0000(r1)
    96c2:	05 24       	jz	$+12     	;abs 0x96ce
    96c4:	5f 42 2b 00 	mov.b	&0x002b,r15	
    96c8:	7f f0 ef ff 	and.b	#-17,	r15	;#0xffef
    96cc:	1a 3c       	jmp	$+54     	;abs 0x9702
    96ce:	b1 b0 20 00 00 00 	bit	#32,	0(r1)	;#0x0020, 0x0000(r1)
    96d4:	05 24       	jz	$+12     	;abs 0x96e0
    96d6:	5f 42 2b 00 	mov.b	&0x002b,r15	
    96da:	7f f0 df ff 	and.b	#-33,	r15	;#0xffdf
    96de:	11 3c       	jmp	$+36     	;abs 0x9702
    96e0:	b1 b0 40 00 00 00 	bit	#64,	0(r1)	;#0x0040, 0x0000(r1)
    96e6:	05 24       	jz	$+12     	;abs 0x96f2
    96e8:	5f 42 2b 00 	mov.b	&0x002b,r15	
    96ec:	7f f0 bf ff 	and.b	#-65,	r15	;#0xffbf
    96f0:	08 3c       	jmp	$+18     	;abs 0x9702
    96f2:	b1 b0 80 00 00 00 	bit	#128,	0(r1)	;#0x0080, 0x0000(r1)
    96f8:	06 24       	jz	$+14     	;abs 0x9706
    96fa:	5f 42 2b 00 	mov.b	&0x002b,r15	
    96fe:	7f f0 7f 00 	and.b	#127,	r15	;#0x007f
    9702:	c2 4f 2b 00 	mov.b	r15,	&0x002b	
    9706:	21 53       	incd	r1		
    9708:	3e 41       	pop	r14		
    970a:	3f 41       	pop	r15		
    970c:	b1 c0 f0 00 00 00 	bic	#240,	0(r1)	;#0x00f0, 0x0000(r1)
    9712:	00 13       	reti			

00009714 <sig_UART0RX_VECTOR>:
    9714:	0f 12       	push	r15		
    9716:	0e 12       	push	r14		
    9718:	0d 12       	push	r13		
    971a:	0c 12       	push	r12		
    971c:	5e 42 76 00 	mov.b	&0x0076,r14	
    9720:	5f 42 24 11 	mov.b	&0x1124,r15	
    9724:	4f 93       	tst.b	r15		
    9726:	1c 24       	jz	$+58     	;abs 0x9760
    9728:	18 3c       	jmp	$+50     	;abs 0x975a
    972a:	c2 93 04 11 	tst.b	&0x1104	
    972e:	18 20       	jnz	$+50     	;abs 0x9760
    9730:	1f 42 3e 14 	mov	&0x143e,r15	
    9734:	0f 93       	tst	r15		
    9736:	04 24       	jz	$+10     	;abs 0x9740
    9738:	1f 52 70 15 	add	&0x1570,r15	
    973c:	cf 4e ff ff 	mov.b	r14,	-1(r15)	;0xffff(r15)
    9740:	92 92 74 15 70 15 	cmp	&0x1574,&0x1570	
    9746:	03 2c       	jc	$+8      	;abs 0x974e
    9748:	b0 12 60 46 	call	#0x4660	
    974c:	09 3c       	jmp	$+20     	;abs 0x9760
    974e:	f2 f0 bf ff 00 00 	and.b	#-65,	&0x0000	;#0xffbf
    9754:	b0 12 64 6f 	call	#0x6f64	
    9758:	03 3c       	jmp	$+8      	;abs 0x9760
    975a:	7f 90 03 00 	cmp.b	#3,	r15	;#0x0003
    975e:	e5 27       	jz	$-52     	;abs 0x972a
    9760:	3c 41       	pop	r12		
    9762:	3d 41       	pop	r13		
    9764:	3e 41       	pop	r14		
    9766:	3f 41       	pop	r15		
    9768:	b1 c0 f0 00 00 00 	bic	#240,	0(r1)	;#0x00f0, 0x0000(r1)
    976e:	00 13       	reti			

00009770 <sig_UART0TX_VECTOR>:
    9770:	0f 12       	push	r15		
    9772:	5f 42 70 00 	mov.b	&0x0070,r15	
    9776:	3f f0 20 00 	and	#32,	r15	;#0x0020
    977a:	06 24       	jz	$+14     	;abs 0x9788
    977c:	5f 42 70 00 	mov.b	&0x0070,r15	
    9780:	2f f2       	and	#4,	r15	;r2 As==10
    9782:	02 24       	jz	$+6      	;abs 0x9788
    9784:	5f 42 70 00 	mov.b	&0x0070,r15	
    9788:	3f 41       	pop	r15		
    978a:	b1 c0 f0 00 00 00 	bic	#240,	0(r1)	;#0x00f0, 0x0000(r1)
    9790:	00 13       	reti			

00009792 <__mulsi3>:
    9792:	0b 12       	push	r11		
    9794:	0a 12       	push	r10		
    9796:	0b 43       	clr	r11		
    9798:	0a 43       	clr	r10		
    979a:	08 3c       	jmp	$+18     	;abs 0x97ac
    979c:	12 c3       	clrc			
    979e:	0d 10       	rrc	r13		
    97a0:	0c 10       	rrc	r12		
    97a2:	02 28       	jnc	$+6      	;abs 0x97a8
    97a4:	0a 5e       	add	r14,	r10	
    97a6:	0b 6f       	addc	r15,	r11	
    97a8:	0e 5e       	rla	r14		
    97aa:	0f 6f       	rlc	r15		
    97ac:	0c 93       	tst	r12		
    97ae:	f6 23       	jnz	$-18     	;abs 0x979c
    97b0:	0d 93       	tst	r13		
    97b2:	f4 23       	jnz	$-22     	;abs 0x979c
    97b4:	0e 4a       	mov	r10,	r14	
    97b6:	0f 4b       	mov	r11,	r15	
    97b8:	3a 41       	pop	r10		
    97ba:	3b 41       	pop	r11		
    97bc:	30 41       	ret			

000097be <__umulsidi3>:
    97be:	0b 12       	push	r11		
    97c0:	0a 12       	push	r10		
    97c2:	09 12       	push	r9		
    97c4:	08 12       	push	r8		
    97c6:	07 12       	push	r7		
    97c8:	06 12       	push	r6		
    97ca:	05 12       	push	r5		
    97cc:	04 12       	push	r4		
    97ce:	08 4c       	mov	r12,	r8	
    97d0:	09 4d       	mov	r13,	r9	
    97d2:	0a 43       	clr	r10		
    97d4:	0b 43       	clr	r11		
    97d6:	0c 4e       	mov	r14,	r12	
    97d8:	0d 4f       	mov	r15,	r13	
    97da:	0e 43       	clr	r14		
    97dc:	0f 43       	clr	r15		
    97de:	b0 12 2a 98 	call	#0x982a	
    97e2:	34 41       	pop	r4		
    97e4:	35 41       	pop	r5		
    97e6:	36 41       	pop	r6		
    97e8:	37 41       	pop	r7		
    97ea:	38 41       	pop	r8		
    97ec:	39 41       	pop	r9		
    97ee:	3a 41       	pop	r10		
    97f0:	3b 41       	pop	r11		
    97f2:	30 41       	ret			

000097f4 <__muldi3>:
    97f4:	0b 12       	push	r11		
    97f6:	0a 12       	push	r10		
    97f8:	09 12       	push	r9		
    97fa:	08 12       	push	r8		
    97fc:	07 12       	push	r7		
    97fe:	06 12       	push	r6		
    9800:	05 12       	push	r5		
    9802:	04 12       	push	r4		
    9804:	18 41 12 00 	mov	18(r1),	r8	;0x0012(r1)
    9808:	19 41 14 00 	mov	20(r1),	r9	;0x0014(r1)
    980c:	1a 41 16 00 	mov	22(r1),	r10	;0x0016(r1)
    9810:	1b 41 18 00 	mov	24(r1),	r11	;0x0018(r1)
    9814:	b0 12 2a 98 	call	#0x982a	
    9818:	34 41       	pop	r4		
    981a:	35 41       	pop	r5		
    981c:	36 41       	pop	r6		
    981e:	37 41       	pop	r7		
    9820:	38 41       	pop	r8		
    9822:	39 41       	pop	r9		
    9824:	3a 41       	pop	r10		
    9826:	3b 41       	pop	r11		
    9828:	30 41       	ret			

0000982a <__xabi_muldi3>:
    982a:	04 43       	clr	r4		
    982c:	05 43       	clr	r5		
    982e:	06 43       	clr	r6		
    9830:	07 43       	clr	r7		
    9832:	0e 3c       	jmp	$+30     	;abs 0x9850
    9834:	12 c3       	clrc			
    9836:	0b 10       	rrc	r11		
    9838:	0a 10       	rrc	r10		
    983a:	09 10       	rrc	r9		
    983c:	08 10       	rrc	r8		
    983e:	04 28       	jnc	$+10     	;abs 0x9848
    9840:	04 5c       	add	r12,	r4	
    9842:	05 6d       	addc	r13,	r5	
    9844:	06 6e       	addc	r14,	r6	
    9846:	07 6f       	addc	r15,	r7	
    9848:	0c 5c       	rla	r12		
    984a:	0d 6d       	rlc	r13		
    984c:	0e 6e       	rlc	r14		
    984e:	0f 6f       	rlc	r15		
    9850:	08 93       	tst	r8		
    9852:	f0 23       	jnz	$-30     	;abs 0x9834
    9854:	09 93       	tst	r9		
    9856:	ee 23       	jnz	$-34     	;abs 0x9834
    9858:	0a 93       	tst	r10		
    985a:	ec 23       	jnz	$-38     	;abs 0x9834
    985c:	0b 93       	tst	r11		
    985e:	ea 23       	jnz	$-42     	;abs 0x9834
    9860:	0c 44       	mov	r4,	r12	
    9862:	0d 45       	mov	r5,	r13	
    9864:	0e 46       	mov	r6,	r14	
    9866:	0f 47       	mov	r7,	r15	
    9868:	30 41       	ret			

0000986a <memcpy>:
    986a:	0b 12       	push	r11		
    986c:	0a 12       	push	r10		
    986e:	09 12       	push	r9		
    9870:	08 12       	push	r8		
    9872:	07 12       	push	r7		
    9874:	0d 93       	tst	r13		
    9876:	70 24       	jz	$+226    	;abs 0x9958
    9878:	0f 9e       	cmp	r14,	r15	
    987a:	6e 24       	jz	$+222    	;abs 0x9958
    987c:	34 2c       	jc	$+106    	;abs 0x98e6
    987e:	0c 4e       	mov	r14,	r12	
    9880:	0c df       	bis	r15,	r12	
    9882:	1c f3       	and	#1,	r12	;r3 As==01
    9884:	1b 24       	jz	$+56     	;abs 0x98bc
    9886:	0c 4e       	mov	r14,	r12	
    9888:	0c ef       	xor	r15,	r12	
    988a:	1c f3       	and	#1,	r12	;r3 As==01
    988c:	07 20       	jnz	$+16     	;abs 0x989c
    988e:	2d 93       	cmp	#2,	r13	;r3 As==10
    9890:	07 28       	jnc	$+16     	;abs 0x98a0
    9892:	0b 4e       	mov	r14,	r11	
    9894:	1b f3       	and	#1,	r11	;r3 As==01
    9896:	2c 43       	mov	#2,	r12	;r3 As==10
    9898:	0c 8b       	sub	r11,	r12	
    989a:	03 3c       	jmp	$+8      	;abs 0x98a2
    989c:	0c 4d       	mov	r13,	r12	
    989e:	01 3c       	jmp	$+4      	;abs 0x98a2
    98a0:	1c 43       	mov	#1,	r12	;r3 As==01
    98a2:	0d 8c       	sub	r12,	r13	
    98a4:	0a 4c       	mov	r12,	r10	
    98a6:	09 4e       	mov	r14,	r9	
    98a8:	0b 4f       	mov	r15,	r11	
    98aa:	fb 49 00 00 	mov.b	@r9+,	0(r11)	;0x0000(r11)
    98ae:	1b 53       	inc	r11		
    98b0:	3a 53       	add	#-1,	r10	;r3 As==11
    98b2:	fb 23       	jnz	$-8      	;abs 0x98aa
    98b4:	0a 4f       	mov	r15,	r10	
    98b6:	0a 5c       	add	r12,	r10	
    98b8:	0e 5c       	add	r12,	r14	
    98ba:	01 3c       	jmp	$+4      	;abs 0x98be
    98bc:	0a 4f       	mov	r15,	r10	
    98be:	0b 4d       	mov	r13,	r11	
    98c0:	12 c3       	clrc			
    98c2:	0b 10       	rrc	r11		
    98c4:	0b 24       	jz	$+24     	;abs 0x98dc
    98c6:	09 4b       	mov	r11,	r9	
    98c8:	08 4e       	mov	r14,	r8	
    98ca:	0c 4a       	mov	r10,	r12	
    98cc:	bc 48 00 00 	mov	@r8+,	0(r12)	;0x0000(r12)
    98d0:	2c 53       	incd	r12		
    98d2:	39 53       	add	#-1,	r9	;r3 As==11
    98d4:	fb 23       	jnz	$-8      	;abs 0x98cc
    98d6:	0b 5b       	rla	r11		
    98d8:	0e 5b       	add	r11,	r14	
    98da:	0a 5b       	add	r11,	r10	
    98dc:	1d f3       	and	#1,	r13	;r3 As==01
    98de:	3c 24       	jz	$+122    	;abs 0x9958
    98e0:	ea 4e 00 00 	mov.b	@r14,	0(r10)	;0x0000(r10)
    98e4:	39 3c       	jmp	$+116    	;abs 0x9958
    98e6:	0e 5d       	add	r13,	r14	
    98e8:	0c 4f       	mov	r15,	r12	
    98ea:	0c 5d       	add	r13,	r12	
    98ec:	0b 4c       	mov	r12,	r11	
    98ee:	0b de       	bis	r14,	r11	
    98f0:	1b f3       	and	#1,	r11	;r3 As==01
    98f2:	1b 24       	jz	$+56     	;abs 0x992a
    98f4:	0b 4c       	mov	r12,	r11	
    98f6:	0b ee       	xor	r14,	r11	
    98f8:	1b f3       	and	#1,	r11	;r3 As==01
    98fa:	06 20       	jnz	$+14     	;abs 0x9908
    98fc:	3d 90 03 00 	cmp	#3,	r13	;#0x0003
    9900:	03 28       	jnc	$+8      	;abs 0x9908
    9902:	0b 4e       	mov	r14,	r11	
    9904:	1b f3       	and	#1,	r11	;r3 As==01
    9906:	01 3c       	jmp	$+4      	;abs 0x990a
    9908:	0b 4d       	mov	r13,	r11	
    990a:	0d 8b       	sub	r11,	r13	
    990c:	09 4e       	mov	r14,	r9	
    990e:	0a 4c       	mov	r12,	r10	
    9910:	08 4b       	mov	r11,	r8	
    9912:	08 8c       	sub	r12,	r8	
    9914:	3a 53       	add	#-1,	r10	;r3 As==11
    9916:	39 53       	add	#-1,	r9	;r3 As==11
    9918:	ea 49 00 00 	mov.b	@r9,	0(r10)	;0x0000(r10)
    991c:	07 4a       	mov	r10,	r7	
    991e:	07 58       	add	r8,	r7	
    9920:	f9 23       	jnz	$-12     	;abs 0x9914
    9922:	3b e3       	inv	r11		
    9924:	1b 53       	inc	r11		
    9926:	0c 5b       	add	r11,	r12	
    9928:	0e 5b       	add	r11,	r14	
    992a:	0b 4d       	mov	r13,	r11	
    992c:	12 c3       	clrc			
    992e:	0b 10       	rrc	r11		
    9930:	0e 24       	jz	$+30     	;abs 0x994e
    9932:	0a 4b       	mov	r11,	r10	
    9934:	08 4e       	mov	r14,	r8	
    9936:	09 4c       	mov	r12,	r9	
    9938:	28 83       	decd	r8		
    993a:	29 83       	decd	r9		
    993c:	a9 48 00 00 	mov	@r8,	0(r9)	;0x0000(r9)
    9940:	3a 53       	add	#-1,	r10	;r3 As==11
    9942:	fa 23       	jnz	$-10     	;abs 0x9938
    9944:	0a 8b       	sub	r11,	r10	
    9946:	0b 4a       	mov	r10,	r11	
    9948:	0b 5b       	rla	r11		
    994a:	0e 5b       	add	r11,	r14	
    994c:	0c 5b       	add	r11,	r12	
    994e:	1d f3       	and	#1,	r13	;r3 As==01
    9950:	03 24       	jz	$+8      	;abs 0x9958
    9952:	dc 4e ff ff ff ff 	mov.b	-1(r14),-1(r12)	;0xffff(r14), 0xffff(r12)
    9958:	37 41       	pop	r7		
    995a:	38 41       	pop	r8		
    995c:	39 41       	pop	r9		
    995e:	3a 41       	pop	r10		
    9960:	3b 41       	pop	r11		
    9962:	30 41       	ret			

00009964 <memset>:
    9964:	0b 12       	push	r11		
    9966:	0a 12       	push	r10		
    9968:	09 12       	push	r9		
    996a:	08 12       	push	r8		
    996c:	3d 90 06 00 	cmp	#6,	r13	;#0x0006
    9970:	09 2c       	jc	$+20     	;abs 0x9984
    9972:	0c 4f       	mov	r15,	r12	
    9974:	04 3c       	jmp	$+10     	;abs 0x997e
    9976:	cc 4e 00 00 	mov.b	r14,	0(r12)	;0x0000(r12)
    997a:	1c 53       	inc	r12		
    997c:	3d 53       	add	#-1,	r13	;r3 As==11
    997e:	0d 93       	tst	r13		
    9980:	fa 23       	jnz	$-10     	;abs 0x9976
    9982:	20 3c       	jmp	$+66     	;abs 0x99c4
    9984:	4e 4e       	mov.b	r14,	r14	
    9986:	4b 4e       	mov.b	r14,	r11	
    9988:	0b 93       	tst	r11		
    998a:	03 24       	jz	$+8      	;abs 0x9992
    998c:	0c 4b       	mov	r11,	r12	
    998e:	8c 10       	swpb	r12		
    9990:	0b dc       	bis	r12,	r11	
    9992:	1f b3       	bit	#1,	r15	;r3 As==01
    9994:	06 24       	jz	$+14     	;abs 0x99a2
    9996:	3d 53       	add	#-1,	r13	;r3 As==11
    9998:	cf 4e 00 00 	mov.b	r14,	0(r15)	;0x0000(r15)
    999c:	09 4f       	mov	r15,	r9	
    999e:	19 53       	inc	r9		
    99a0:	01 3c       	jmp	$+4      	;abs 0x99a4
    99a2:	09 4f       	mov	r15,	r9	
    99a4:	0c 4d       	mov	r13,	r12	
    99a6:	12 c3       	clrc			
    99a8:	0c 10       	rrc	r12		
    99aa:	0a 49       	mov	r9,	r10	
    99ac:	08 4c       	mov	r12,	r8	
    99ae:	8a 4b 00 00 	mov	r11,	0(r10)	;0x0000(r10)
    99b2:	2a 53       	incd	r10		
    99b4:	38 53       	add	#-1,	r8	;r3 As==11
    99b6:	fb 23       	jnz	$-8      	;abs 0x99ae
    99b8:	0c 5c       	rla	r12		
    99ba:	0c 59       	add	r9,	r12	
    99bc:	1d f3       	and	#1,	r13	;r3 As==01
    99be:	02 24       	jz	$+6      	;abs 0x99c4
    99c0:	cc 4e 00 00 	mov.b	r14,	0(r12)	;0x0000(r12)
    99c4:	38 41       	pop	r8		
    99c6:	39 41       	pop	r9		
    99c8:	3a 41       	pop	r10		
    99ca:	3b 41       	pop	r11		
    99cc:	30 41       	ret			

000099ce <_unexpected_>:
    99ce:	00 13       	reti			

Disassembly of section .vectors:

0000ffe0 <__ivtbl_16>:
    ffe0:	44 45 66 96 44 45 44 45 60 95 f6 94 d8 94 44 45     DEf.DEDE`.....DE
    fff0:	70 97 14 97 44 45 44 45 3a 95 1c 95 44 45 00 40     p...DEDE:...DE.@
